
Barometer-Thermometer.elf:     file format elf32-avr

Sections:
Idx Name          Size      VMA       LMA       File off  Algn
  0 .data         0000000e  00800100  000014f8  0000158c  2**0
                  CONTENTS, ALLOC, LOAD, DATA
  1 .text         000014f8  00000000  00000000  00000094  2**1
                  CONTENTS, ALLOC, LOAD, READONLY, CODE
  2 .bss          0000001c  0080010e  0080010e  0000159a  2**0
                  ALLOC
  3 .comment      00000030  00000000  00000000  0000159a  2**0
                  CONTENTS, READONLY
  4 .note.gnu.avr.deviceinfo 00000040  00000000  00000000  000015cc  2**2
                  CONTENTS, READONLY
  5 .debug_aranges 00000158  00000000  00000000  0000160c  2**0
                  CONTENTS, READONLY, DEBUGGING
  6 .debug_info   00001c68  00000000  00000000  00001764  2**0
                  CONTENTS, READONLY, DEBUGGING
  7 .debug_abbrev 00000b03  00000000  00000000  000033cc  2**0
                  CONTENTS, READONLY, DEBUGGING
  8 .debug_line   00000bd6  00000000  00000000  00003ecf  2**0
                  CONTENTS, READONLY, DEBUGGING
  9 .debug_frame  00000378  00000000  00000000  00004aa8  2**2
                  CONTENTS, READONLY, DEBUGGING
 10 .debug_str    000005f6  00000000  00000000  00004e20  2**0
                  CONTENTS, READONLY, DEBUGGING
 11 .debug_loc    00000faa  00000000  00000000  00005416  2**0
                  CONTENTS, READONLY, DEBUGGING
 12 .debug_ranges 00000118  00000000  00000000  000063c0  2**0
                  CONTENTS, READONLY, DEBUGGING

Disassembly of section .text:

00000000 <__vectors>:
       0:	0c 94 b1 00 	jmp	0x162	; 0x162 <__ctors_end>
       4:	0c 94 ce 00 	jmp	0x19c	; 0x19c <__bad_interrupt>
       8:	0c 94 ce 00 	jmp	0x19c	; 0x19c <__bad_interrupt>
       c:	0c 94 ce 00 	jmp	0x19c	; 0x19c <__bad_interrupt>
      10:	0c 94 ce 00 	jmp	0x19c	; 0x19c <__bad_interrupt>
      14:	0c 94 ce 00 	jmp	0x19c	; 0x19c <__bad_interrupt>
      18:	0c 94 ce 00 	jmp	0x19c	; 0x19c <__bad_interrupt>
      1c:	0c 94 ce 00 	jmp	0x19c	; 0x19c <__bad_interrupt>
      20:	0c 94 ce 00 	jmp	0x19c	; 0x19c <__bad_interrupt>
      24:	0c 94 ce 00 	jmp	0x19c	; 0x19c <__bad_interrupt>
      28:	0c 94 ce 00 	jmp	0x19c	; 0x19c <__bad_interrupt>
      2c:	0c 94 ce 00 	jmp	0x19c	; 0x19c <__bad_interrupt>
      30:	0c 94 ce 00 	jmp	0x19c	; 0x19c <__bad_interrupt>
      34:	0c 94 ce 00 	jmp	0x19c	; 0x19c <__bad_interrupt>
      38:	0c 94 ce 00 	jmp	0x19c	; 0x19c <__bad_interrupt>
      3c:	0c 94 ce 00 	jmp	0x19c	; 0x19c <__bad_interrupt>
      40:	0c 94 ce 00 	jmp	0x19c	; 0x19c <__bad_interrupt>
      44:	0c 94 ce 00 	jmp	0x19c	; 0x19c <__bad_interrupt>
      48:	0c 94 ce 00 	jmp	0x19c	; 0x19c <__bad_interrupt>
      4c:	0c 94 ce 00 	jmp	0x19c	; 0x19c <__bad_interrupt>
      50:	0c 94 ce 00 	jmp	0x19c	; 0x19c <__bad_interrupt>
      54:	0c 94 ce 00 	jmp	0x19c	; 0x19c <__bad_interrupt>
      58:	0c 94 ce 00 	jmp	0x19c	; 0x19c <__bad_interrupt>
      5c:	0c 94 ce 00 	jmp	0x19c	; 0x19c <__bad_interrupt>
      60:	0c 94 ce 00 	jmp	0x19c	; 0x19c <__bad_interrupt>
      64:	0c 94 ce 00 	jmp	0x19c	; 0x19c <__bad_interrupt>

00000068 <__trampolines_end>:
      68:	00 40       	sbci	r16, 0x00	; 0
      6a:	7a 10       	cpse	r7, r10
      6c:	f3 5a       	subi	r31, 0xA3	; 163
      6e:	00 a0       	ldd	r0, Z+32	; 0x20
      70:	72 4e       	sbci	r23, 0xE2	; 226
      72:	18 09       	sbc	r17, r8
      74:	00 10       	cpse	r0, r0
      76:	a5 d4       	rcall	.+2378   	; 0x9c2 <send_cmd+0x24>
      78:	e8 00       	.word	0x00e8	; ????
      7a:	00 e8       	ldi	r16, 0x80	; 128
      7c:	76 48       	sbci	r23, 0x86	; 134
      7e:	17 00       	.word	0x0017	; ????
      80:	00 e4       	ldi	r16, 0x40	; 64
      82:	0b 54       	subi	r16, 0x4B	; 75
      84:	02 00       	.word	0x0002	; ????
      86:	00 ca       	rjmp	.-3072   	; 0xfffff488 <__eeprom_end+0xff7ef488>
      88:	9a 3b       	cpi	r25, 0xBA	; 186
      8a:	00 00       	nop
      8c:	00 e1       	ldi	r16, 0x10	; 16
      8e:	f5 05       	cpc	r31, r5
      90:	00 00       	nop
      92:	80 96       	adiw	r24, 0x20	; 32
      94:	98 00       	.word	0x0098	; ????
      96:	00 00       	nop
      98:	40 42       	sbci	r20, 0x20	; 32
      9a:	0f 00       	.word	0x000f	; ????
      9c:	00 00       	nop
      9e:	a0 86       	std	Z+8, r10	; 0x08
      a0:	01 00       	.word	0x0001	; ????
      a2:	00 00       	nop
      a4:	10 27       	eor	r17, r16
      a6:	00 00       	nop
      a8:	00 00       	nop
      aa:	e8 03       	fmulsu	r22, r16
      ac:	00 00       	nop
      ae:	00 00       	nop
      b0:	64 00       	.word	0x0064	; ????
      b2:	00 00       	nop
      b4:	00 00       	nop
      b6:	0a 00       	.word	0x000a	; ????
      b8:	00 00       	nop
      ba:	00 00       	nop
      bc:	01 00       	.word	0x0001	; ????
      be:	00 00       	nop
      c0:	00 00       	nop
      c2:	2c 76       	andi	r18, 0x6C	; 108
      c4:	d8 88       	ldd	r13, Y+16	; 0x10
      c6:	dc 67       	ori	r29, 0x7C	; 124
      c8:	4f 08       	sbc	r4, r15
      ca:	23 df       	rcall	.-442    	; 0xffffff12 <__eeprom_end+0xff7eff12>
      cc:	c1 df       	rcall	.-126    	; 0x50 <__SREG__+0x11>
      ce:	ae 59       	subi	r26, 0x9E	; 158
      d0:	e1 b1       	in	r30, 0x01	; 1
      d2:	b7 96       	adiw	r30, 0x27	; 39
      d4:	e5 e3       	ldi	r30, 0x35	; 53
      d6:	e4 53       	subi	r30, 0x34	; 52
      d8:	c6 3a       	cpi	r28, 0xA6	; 166
      da:	e6 51       	subi	r30, 0x16	; 22
      dc:	99 76       	andi	r25, 0x69	; 105
      de:	96 e8       	ldi	r25, 0x86	; 134
      e0:	e6 c2       	rjmp	.+1484   	; 0x6ae <get_pres+0x19a>
      e2:	84 26       	eor	r8, r20
      e4:	eb 89       	ldd	r30, Y+19	; 0x13
      e6:	8c 9b       	sbis	0x11, 4	; 17
      e8:	62 ed       	ldi	r22, 0xD2	; 210
      ea:	40 7c       	andi	r20, 0xC0	; 192
      ec:	6f fc       	.word	0xfc6f	; ????
      ee:	ef bc       	out	0x2f, r14	; 47
      f0:	9c 9f       	mul	r25, r28
      f2:	40 f2       	brcs	.-112    	; 0x84 <__trampolines_end+0x1c>
      f4:	ba a5       	ldd	r27, Y+42	; 0x2a
      f6:	6f a5       	ldd	r22, Y+47	; 0x2f
      f8:	f4 90       	lpm	r15, Z
      fa:	05 5a       	subi	r16, 0xA5	; 165
      fc:	2a f7       	brpl	.-54     	; 0xc8 <__trampolines_end+0x60>
      fe:	5c 93       	st	X, r21
     100:	6b 6c       	ori	r22, 0xCB	; 203
     102:	f9 67       	ori	r31, 0x79	; 121
     104:	6d c1       	rjmp	.+730    	; 0x3e0 <get_t_fine+0xa2>
     106:	1b fc       	.word	0xfc1b	; ????
     108:	e0 e4       	ldi	r30, 0x40	; 64
     10a:	0d 47       	sbci	r16, 0x7D	; 125
     10c:	fe f5       	brtc	.+126    	; 0x18c <.do_clear_bss_loop>
     10e:	20 e6       	ldi	r18, 0x60	; 96
     110:	b5 00       	.word	0x00b5	; ????
     112:	d0 ed       	ldi	r29, 0xD0	; 208
     114:	90 2e       	mov	r9, r16
     116:	03 00       	.word	0x0003	; ????
     118:	94 35       	cpi	r25, 0x54	; 84
     11a:	77 05       	cpc	r23, r7
     11c:	00 80       	ld	r0, Z
     11e:	84 1e       	adc	r8, r20
     120:	08 00       	.word	0x0008	; ????
     122:	00 20       	and	r0, r0
     124:	4e 0a       	sbc	r4, r30
     126:	00 00       	nop
     128:	00 c8       	rjmp	.-4096   	; 0xfffff12a <__eeprom_end+0xff7ef12a>
     12a:	0c 33       	cpi	r16, 0x3C	; 60
     12c:	33 33       	cpi	r19, 0x33	; 51
     12e:	33 0f       	add	r19, r19
     130:	98 6e       	ori	r25, 0xE8	; 232
     132:	12 83       	std	Z+2, r17	; 0x02
     134:	11 41       	sbci	r17, 0x11	; 17
     136:	ef 8d       	ldd	r30, Y+31	; 0x1f
     138:	21 14       	cp	r2, r1
     13a:	89 3b       	cpi	r24, 0xB9	; 185
     13c:	e6 55       	subi	r30, 0x56	; 86
     13e:	16 cf       	rjmp	.-468    	; 0xffffff6c <__eeprom_end+0xff7eff6c>
     140:	fe e6       	ldi	r31, 0x6E	; 110
     142:	db 18       	sub	r13, r11
     144:	d1 84       	ldd	r13, Z+9	; 0x09
     146:	4b 38       	cpi	r20, 0x8B	; 139
     148:	1b f7       	brvc	.-58     	; 0x110 <__trampolines_end+0xa8>
     14a:	7c 1d       	adc	r23, r12
     14c:	90 1d       	adc	r25, r0
     14e:	a4 bb       	out	0x14, r26	; 20
     150:	e4 24       	eor	r14, r4
     152:	20 32       	cpi	r18, 0x20	; 32
     154:	84 72       	andi	r24, 0x24	; 36
     156:	5e 22       	and	r5, r30
     158:	81 00       	.word	0x0081	; ????
     15a:	c9 f1       	breq	.+114    	; 0x1ce <temp_init+0x2e>
     15c:	24 ec       	ldi	r18, 0xC4	; 196
     15e:	a1 e5       	ldi	r26, 0x51	; 81
     160:	3d 27       	eor	r19, r29

00000162 <__ctors_end>:
     162:	11 24       	eor	r1, r1
     164:	1f be       	out	0x3f, r1	; 63
     166:	cf ef       	ldi	r28, 0xFF	; 255
     168:	d8 e0       	ldi	r29, 0x08	; 8
     16a:	de bf       	out	0x3e, r29	; 62
     16c:	cd bf       	out	0x3d, r28	; 61

0000016e <__do_copy_data>:
     16e:	11 e0       	ldi	r17, 0x01	; 1
     170:	a0 e0       	ldi	r26, 0x00	; 0
     172:	b1 e0       	ldi	r27, 0x01	; 1
     174:	e8 ef       	ldi	r30, 0xF8	; 248
     176:	f4 e1       	ldi	r31, 0x14	; 20
     178:	02 c0       	rjmp	.+4      	; 0x17e <__do_copy_data+0x10>
     17a:	05 90       	lpm	r0, Z+
     17c:	0d 92       	st	X+, r0
     17e:	ae 30       	cpi	r26, 0x0E	; 14
     180:	b1 07       	cpc	r27, r17
     182:	d9 f7       	brne	.-10     	; 0x17a <__do_copy_data+0xc>

00000184 <__do_clear_bss>:
     184:	21 e0       	ldi	r18, 0x01	; 1
     186:	ae e0       	ldi	r26, 0x0E	; 14
     188:	b1 e0       	ldi	r27, 0x01	; 1
     18a:	01 c0       	rjmp	.+2      	; 0x18e <.do_clear_bss_start>

0000018c <.do_clear_bss_loop>:
     18c:	1d 92       	st	X+, r1

0000018e <.do_clear_bss_start>:
     18e:	aa 32       	cpi	r26, 0x2A	; 42
     190:	b2 07       	cpc	r27, r18
     192:	e1 f7       	brne	.-8      	; 0x18c <.do_clear_bss_loop>
     194:	0e 94 80 05 	call	0xb00	; 0xb00 <main>
     198:	0c 94 7a 0a 	jmp	0x14f4	; 0x14f4 <_exit>

0000019c <__bad_interrupt>:
     19c:	0c 94 00 00 	jmp	0	; 0x0 <__vectors>

000001a0 <temp_init>:
	uint8_t osrs_t = 0b101; 
	// Set device mode (mode bits 1:0 in ctrl_meas register 0xF4)
	// 0b11 corresponds to Normal mode
	uint8_t mode = 0b11;
	// Combine osrs_t (shifted to bits 7:5) and mode (bits 1:0) into ctrl_meas
	ctrl_meas |= ((osrs_t << 5)  | mode);
     1a0:	40 91 01 01 	lds	r20, 0x0101	; 0x800101 <ctrl_meas>
     1a4:	43 6a       	ori	r20, 0xA3	; 163
     1a6:	40 93 01 01 	sts	0x0101, r20	; 0x800101 <ctrl_meas>
	uint8_t t_sb = 0b101;
	// Set IIR filter coefficient (filter bits 4:2 in config register 0xF5)
	// 0b100 corresponds to coefficient 16
	uint8_t filter = 0b100;
	// Combine t_sb (shifted to bits 7:5) and filter (shifted to bits 4:2) into config
	config = ((t_sb << 5) | (filter<<2));
     1aa:	80 eb       	ldi	r24, 0xB0	; 176
     1ac:	80 93 00 01 	sts	0x0100, r24	; 0x800100 <__DATA_REGION_ORIGIN__>
	
	// Write ctrl_meas to register 0xF4 (control/measurement)
	i2c_WRITE(0x76,0xF4,ctrl_meas);
     1b0:	64 ef       	ldi	r22, 0xF4	; 244
     1b2:	86 e7       	ldi	r24, 0x76	; 118
     1b4:	0e 94 76 04 	call	0x8ec	; 0x8ec <i2c_WRITE>
	// Write config to register 0xF5 (config)
	i2c_WRITE(0x76,0xF5,config);
     1b8:	40 91 00 01 	lds	r20, 0x0100	; 0x800100 <__DATA_REGION_ORIGIN__>
     1bc:	65 ef       	ldi	r22, 0xF5	; 245
     1be:	86 e7       	ldi	r24, 0x76	; 118
     1c0:	0e 94 76 04 	call	0x8ec	; 0x8ec <i2c_WRITE>
	
	// Read and store temperature calibration values (16-bit reads)
	dig_T1 = i2c_READ16(0x76,0x88);
     1c4:	68 e8       	ldi	r22, 0x88	; 136
     1c6:	86 e7       	ldi	r24, 0x76	; 118
     1c8:	0e 94 4e 04 	call	0x89c	; 0x89c <i2c_READ16>
     1cc:	70 93 29 01 	sts	0x0129, r23	; 0x800129 <dig_T1+0x1>
     1d0:	60 93 28 01 	sts	0x0128, r22	; 0x800128 <dig_T1>
	dig_T2 = i2c_READ16(0x76,0x8A);
     1d4:	6a e8       	ldi	r22, 0x8A	; 138
     1d6:	86 e7       	ldi	r24, 0x76	; 118
     1d8:	0e 94 4e 04 	call	0x89c	; 0x89c <i2c_READ16>
     1dc:	70 93 27 01 	sts	0x0127, r23	; 0x800127 <dig_T2+0x1>
     1e0:	60 93 26 01 	sts	0x0126, r22	; 0x800126 <dig_T2>
	dig_T3 = i2c_READ16(0x76,0x8C);
     1e4:	6c e8       	ldi	r22, 0x8C	; 140
     1e6:	86 e7       	ldi	r24, 0x76	; 118
     1e8:	0e 94 4e 04 	call	0x89c	; 0x89c <i2c_READ16>
     1ec:	70 93 25 01 	sts	0x0125, r23	; 0x800125 <dig_T3+0x1>
     1f0:	60 93 24 01 	sts	0x0124, r22	; 0x800124 <dig_T3>
     1f4:	08 95       	ret

000001f6 <pres_init>:
	uint8_t osrs_p = 0b101;
	// Set device mode (mode bits 1:0 in ctrl_meas register 0xF4)
	// 0b11 corresponds to Normal mode
	uint8_t mode = 0b11;
	// Combine osrs_p (shifted to bits 4:2) and mode (bits 1:0) into ctrl_meas
	ctrl_meas |= ((osrs_p <<2)  | mode);
     1f6:	40 91 01 01 	lds	r20, 0x0101	; 0x800101 <ctrl_meas>
     1fa:	47 61       	ori	r20, 0x17	; 23
     1fc:	40 93 01 01 	sts	0x0101, r20	; 0x800101 <ctrl_meas>
	// Set standby time (t_sb bits 7:5 in config register 0xF5)
	uint8_t t_sb = 0b101;
	// Set IIR filter coefficient (filter bits 4:2 in config register 0xF5)
	uint8_t filter = 0b100;
	// Combine t_sb and filter into config
	config = ((t_sb << 5) | (filter<<2));
     200:	80 eb       	ldi	r24, 0xB0	; 176
     202:	80 93 00 01 	sts	0x0100, r24	; 0x800100 <__DATA_REGION_ORIGIN__>
	
	// Write ctrl_meas to register 0xF4
	i2c_WRITE(0x76,0xF4,ctrl_meas);
     206:	64 ef       	ldi	r22, 0xF4	; 244
     208:	86 e7       	ldi	r24, 0x76	; 118
     20a:	0e 94 76 04 	call	0x8ec	; 0x8ec <i2c_WRITE>
	// Write config to register 0xF5
	i2c_WRITE(0x76,0xF5,config);
     20e:	40 91 00 01 	lds	r20, 0x0100	; 0x800100 <__DATA_REGION_ORIGIN__>
     212:	65 ef       	ldi	r22, 0xF5	; 245
     214:	86 e7       	ldi	r24, 0x76	; 118
     216:	0e 94 76 04 	call	0x8ec	; 0x8ec <i2c_WRITE>
	
	// Read and store pressure calibration values (16-bit reads)
	dig_P1 = i2c_READ16(0x76,0x8E);
     21a:	6e e8       	ldi	r22, 0x8E	; 142
     21c:	86 e7       	ldi	r24, 0x76	; 118
     21e:	0e 94 4e 04 	call	0x89c	; 0x89c <i2c_READ16>
     222:	70 93 23 01 	sts	0x0123, r23	; 0x800123 <dig_P1+0x1>
     226:	60 93 22 01 	sts	0x0122, r22	; 0x800122 <dig_P1>
	dig_P2 = i2c_READ16(0x76,0x90);
     22a:	60 e9       	ldi	r22, 0x90	; 144
     22c:	86 e7       	ldi	r24, 0x76	; 118
     22e:	0e 94 4e 04 	call	0x89c	; 0x89c <i2c_READ16>
     232:	70 93 21 01 	sts	0x0121, r23	; 0x800121 <dig_P2+0x1>
     236:	60 93 20 01 	sts	0x0120, r22	; 0x800120 <dig_P2>
	dig_P3 = i2c_READ16(0x76,0x92);
     23a:	62 e9       	ldi	r22, 0x92	; 146
     23c:	86 e7       	ldi	r24, 0x76	; 118
     23e:	0e 94 4e 04 	call	0x89c	; 0x89c <i2c_READ16>
     242:	70 93 1f 01 	sts	0x011F, r23	; 0x80011f <dig_P3+0x1>
     246:	60 93 1e 01 	sts	0x011E, r22	; 0x80011e <dig_P3>
	dig_P4 = i2c_READ16(0x76,0x94);
     24a:	64 e9       	ldi	r22, 0x94	; 148
     24c:	86 e7       	ldi	r24, 0x76	; 118
     24e:	0e 94 4e 04 	call	0x89c	; 0x89c <i2c_READ16>
     252:	70 93 1d 01 	sts	0x011D, r23	; 0x80011d <dig_P4+0x1>
     256:	60 93 1c 01 	sts	0x011C, r22	; 0x80011c <dig_P4>
	dig_P5 = i2c_READ16(0x76,0x96);
     25a:	66 e9       	ldi	r22, 0x96	; 150
     25c:	86 e7       	ldi	r24, 0x76	; 118
     25e:	0e 94 4e 04 	call	0x89c	; 0x89c <i2c_READ16>
     262:	70 93 1b 01 	sts	0x011B, r23	; 0x80011b <dig_P5+0x1>
     266:	60 93 1a 01 	sts	0x011A, r22	; 0x80011a <dig_P5>
	dig_P6 = i2c_READ16(0x76,0x98);
     26a:	68 e9       	ldi	r22, 0x98	; 152
     26c:	86 e7       	ldi	r24, 0x76	; 118
     26e:	0e 94 4e 04 	call	0x89c	; 0x89c <i2c_READ16>
     272:	70 93 19 01 	sts	0x0119, r23	; 0x800119 <dig_P6+0x1>
     276:	60 93 18 01 	sts	0x0118, r22	; 0x800118 <dig_P6>
	dig_P7 = i2c_READ16(0x76,0x9A);
     27a:	6a e9       	ldi	r22, 0x9A	; 154
     27c:	86 e7       	ldi	r24, 0x76	; 118
     27e:	0e 94 4e 04 	call	0x89c	; 0x89c <i2c_READ16>
     282:	70 93 17 01 	sts	0x0117, r23	; 0x800117 <dig_P7+0x1>
     286:	60 93 16 01 	sts	0x0116, r22	; 0x800116 <dig_P7>
	dig_P8 = i2c_READ16(0x76,0x9C);
     28a:	6c e9       	ldi	r22, 0x9C	; 156
     28c:	86 e7       	ldi	r24, 0x76	; 118
     28e:	0e 94 4e 04 	call	0x89c	; 0x89c <i2c_READ16>
     292:	70 93 15 01 	sts	0x0115, r23	; 0x800115 <dig_P8+0x1>
     296:	60 93 14 01 	sts	0x0114, r22	; 0x800114 <dig_P8>
	dig_P9 = i2c_READ16(0x76,0x9E);
     29a:	6e e9       	ldi	r22, 0x9E	; 158
     29c:	86 e7       	ldi	r24, 0x76	; 118
     29e:	0e 94 4e 04 	call	0x89c	; 0x89c <i2c_READ16>
     2a2:	70 93 13 01 	sts	0x0113, r23	; 0x800113 <dig_P9+0x1>
     2a6:	60 93 12 01 	sts	0x0112, r22	; 0x800112 <dig_P9>
     2aa:	08 95       	ret

000002ac <get_adc_T>:
/**
 * @brief Reads the raw 20-bit temperature ADC value from the BMP280.
 * @return The uncompensated temperature value as a 32-bit integer.
 */
uint32_t get_adc_T(void)
{
     2ac:	1f 93       	push	r17
     2ae:	cf 93       	push	r28
     2b0:	df 93       	push	r29
	uint8_t MSB,LSB,XLSB;
	
	// Start I2C communication to read temperature registers (0xFA, 0xFB, 0xFC)
	i2c_START();
     2b2:	0e 94 24 04 	call	0x848	; 0x848 <i2c_START>
	i2c_TRANSMIT(0X76<<1);    // Send device address (0x76) + Write bit (0)
     2b6:	8c ee       	ldi	r24, 0xEC	; 236
     2b8:	0e 94 2c 04 	call	0x858	; 0x858 <i2c_TRANSMIT>
	i2c_TRANSMIT(0XFA);       // Send starting register address (temp MSB)
     2bc:	8a ef       	ldi	r24, 0xFA	; 250
     2be:	0e 94 2c 04 	call	0x858	; 0x858 <i2c_TRANSMIT>
	i2c_START();              // Repeated START condition
     2c2:	0e 94 24 04 	call	0x848	; 0x848 <i2c_START>
	i2c_TRANSMIT((0X76<<1)|1); // Send device address (0x76) + Read bit (1)
     2c6:	8d ee       	ldi	r24, 0xED	; 237
     2c8:	0e 94 2c 04 	call	0x858	; 0x858 <i2c_TRANSMIT>
	
	// Read 3 bytes: MSB, LSB, XLSB
	MSB = i2c_RECIEVE_with_ACK(); // Temp MSB (bits 19:12)
     2cc:	0e 94 36 04 	call	0x86c	; 0x86c <i2c_RECIEVE_with_ACK>
     2d0:	18 2f       	mov	r17, r24
	LSB = i2c_RECIEVE_with_ACK(); // Temp LSB (bits 11:4)
     2d2:	0e 94 36 04 	call	0x86c	; 0x86c <i2c_RECIEVE_with_ACK>
     2d6:	c8 2f       	mov	r28, r24
	XLSB = i2c_RECIEVE_NACK();    // Temp XLSB (bits 3:0 in bits 7:4 of the byte)
     2d8:	0e 94 40 04 	call	0x880	; 0x880 <i2c_RECIEVE_NACK>
     2dc:	d8 2f       	mov	r29, r24
	
	i2c_STOP();
     2de:	0e 94 4a 04 	call	0x894	; 0x894 <i2c_STOP>
	// Construct the 20-bit raw ADC value: (MSB << 12) | (LSB << 4) | (XLSB >> 4)
	return ((uint32_t)MSB<<12 | (uint32_t)LSB<<4 | (uint32_t)XLSB>>4);
     2e2:	81 2f       	mov	r24, r17
     2e4:	90 e0       	ldi	r25, 0x00	; 0
     2e6:	a0 e0       	ldi	r26, 0x00	; 0
     2e8:	b0 e0       	ldi	r27, 0x00	; 0
     2ea:	07 2e       	mov	r0, r23
     2ec:	7c e0       	ldi	r23, 0x0C	; 12
     2ee:	88 0f       	add	r24, r24
     2f0:	99 1f       	adc	r25, r25
     2f2:	aa 1f       	adc	r26, r26
     2f4:	bb 1f       	adc	r27, r27
     2f6:	7a 95       	dec	r23
     2f8:	d1 f7       	brne	.-12     	; 0x2ee <get_adc_T+0x42>
     2fa:	70 2d       	mov	r23, r0
     2fc:	4c 2f       	mov	r20, r28
     2fe:	50 e0       	ldi	r21, 0x00	; 0
     300:	60 e0       	ldi	r22, 0x00	; 0
     302:	70 e0       	ldi	r23, 0x00	; 0
     304:	44 0f       	add	r20, r20
     306:	55 1f       	adc	r21, r21
     308:	66 1f       	adc	r22, r22
     30a:	77 1f       	adc	r23, r23
     30c:	44 0f       	add	r20, r20
     30e:	55 1f       	adc	r21, r21
     310:	66 1f       	adc	r22, r22
     312:	77 1f       	adc	r23, r23
     314:	44 0f       	add	r20, r20
     316:	55 1f       	adc	r21, r21
     318:	66 1f       	adc	r22, r22
     31a:	77 1f       	adc	r23, r23
     31c:	44 0f       	add	r20, r20
     31e:	55 1f       	adc	r21, r21
     320:	66 1f       	adc	r22, r22
     322:	77 1f       	adc	r23, r23
     324:	84 2b       	or	r24, r20
     326:	95 2b       	or	r25, r21
     328:	a6 2b       	or	r26, r22
     32a:	b7 2b       	or	r27, r23
     32c:	d2 95       	swap	r29
     32e:	df 70       	andi	r29, 0x0F	; 15
     330:	bc 01       	movw	r22, r24
     332:	cd 01       	movw	r24, r26
     334:	6d 2b       	or	r22, r29
}
     336:	df 91       	pop	r29
     338:	cf 91       	pop	r28
     33a:	1f 91       	pop	r17
     33c:	08 95       	ret

0000033e <get_t_fine>:
 * @brief Calculates the fine resolution temperature compensation value (t_fine).
 * This value is required for both temperature and pressure compensation formulas.
 * It is stored in the global static variable t_fine.
 */
static void get_t_fine()
{
     33e:	4f 92       	push	r4
     340:	5f 92       	push	r5
     342:	6f 92       	push	r6
     344:	7f 92       	push	r7
     346:	8f 92       	push	r8
     348:	9f 92       	push	r9
     34a:	af 92       	push	r10
     34c:	bf 92       	push	r11
     34e:	cf 92       	push	r12
     350:	df 92       	push	r13
     352:	ef 92       	push	r14
     354:	ff 92       	push	r15
	uint32_t adc_T;
	double var1, var2;
	
	// Read raw temperature ADC value
	adc_T = get_adc_T();
     356:	0e 94 56 01 	call	0x2ac	; 0x2ac <get_adc_T>
	
	// The following calculations implement the formula from the BMP280 datasheet
	// to calculate the 32-bit t_fine value.
	var1 = (((double)adc_T)/16384.0 - ((double)dig_T1)/1024.0) * ((double)dig_T2);
     35a:	0e 94 d2 06 	call	0xda4	; 0xda4 <__floatunsisf>
     35e:	2b 01       	movw	r4, r22
     360:	3c 01       	movw	r6, r24
     362:	20 e0       	ldi	r18, 0x00	; 0
     364:	30 e0       	ldi	r19, 0x00	; 0
     366:	40 e8       	ldi	r20, 0x80	; 128
     368:	58 e3       	ldi	r21, 0x38	; 56
     36a:	0e 94 84 07 	call	0xf08	; 0xf08 <__mulsf3>
     36e:	4b 01       	movw	r8, r22
     370:	5c 01       	movw	r10, r24
     372:	60 91 28 01 	lds	r22, 0x0128	; 0x800128 <dig_T1>
     376:	70 91 29 01 	lds	r23, 0x0129	; 0x800129 <dig_T1+0x1>
     37a:	80 e0       	ldi	r24, 0x00	; 0
     37c:	90 e0       	ldi	r25, 0x00	; 0
     37e:	0e 94 d2 06 	call	0xda4	; 0xda4 <__floatunsisf>
     382:	6b 01       	movw	r12, r22
     384:	7c 01       	movw	r14, r24
     386:	20 e0       	ldi	r18, 0x00	; 0
     388:	30 e0       	ldi	r19, 0x00	; 0
     38a:	40 e8       	ldi	r20, 0x80	; 128
     38c:	5a e3       	ldi	r21, 0x3A	; 58
     38e:	0e 94 84 07 	call	0xf08	; 0xf08 <__mulsf3>
     392:	9b 01       	movw	r18, r22
     394:	ac 01       	movw	r20, r24
     396:	c5 01       	movw	r24, r10
     398:	b4 01       	movw	r22, r8
     39a:	0e 94 b8 05 	call	0xb70	; 0xb70 <__subsf3>
     39e:	4b 01       	movw	r8, r22
     3a0:	5c 01       	movw	r10, r24
     3a2:	60 91 26 01 	lds	r22, 0x0126	; 0x800126 <dig_T2>
     3a6:	70 91 27 01 	lds	r23, 0x0127	; 0x800127 <dig_T2+0x1>
     3aa:	07 2e       	mov	r0, r23
     3ac:	00 0c       	add	r0, r0
     3ae:	88 0b       	sbc	r24, r24
     3b0:	99 0b       	sbc	r25, r25
     3b2:	0e 94 d4 06 	call	0xda8	; 0xda8 <__floatsisf>
     3b6:	9b 01       	movw	r18, r22
     3b8:	ac 01       	movw	r20, r24
     3ba:	c5 01       	movw	r24, r10
     3bc:	b4 01       	movw	r22, r8
     3be:	0e 94 84 07 	call	0xf08	; 0xf08 <__mulsf3>
     3c2:	4b 01       	movw	r8, r22
     3c4:	5c 01       	movw	r10, r24
	var2 = ((((double)adc_T)/131072.0 - ((double)dig_T1)/8192.0) *
     3c6:	20 e0       	ldi	r18, 0x00	; 0
     3c8:	30 e0       	ldi	r19, 0x00	; 0
     3ca:	40 e0       	ldi	r20, 0x00	; 0
     3cc:	57 e3       	ldi	r21, 0x37	; 55
     3ce:	c3 01       	movw	r24, r6
     3d0:	b2 01       	movw	r22, r4
     3d2:	0e 94 84 07 	call	0xf08	; 0xf08 <__mulsf3>
     3d6:	2b 01       	movw	r4, r22
     3d8:	3c 01       	movw	r6, r24
     3da:	20 e0       	ldi	r18, 0x00	; 0
     3dc:	30 e0       	ldi	r19, 0x00	; 0
     3de:	40 e0       	ldi	r20, 0x00	; 0
     3e0:	59 e3       	ldi	r21, 0x39	; 57
     3e2:	c7 01       	movw	r24, r14
     3e4:	b6 01       	movw	r22, r12
     3e6:	0e 94 84 07 	call	0xf08	; 0xf08 <__mulsf3>
     3ea:	9b 01       	movw	r18, r22
     3ec:	ac 01       	movw	r20, r24
	(((double)adc_T)/131072.0 - ((double)dig_T1)/8192.0)) *
     3ee:	c3 01       	movw	r24, r6
     3f0:	b2 01       	movw	r22, r4
     3f2:	0e 94 b8 05 	call	0xb70	; 0xb70 <__subsf3>
	adc_T = get_adc_T();
	
	// The following calculations implement the formula from the BMP280 datasheet
	// to calculate the 32-bit t_fine value.
	var1 = (((double)adc_T)/16384.0 - ((double)dig_T1)/1024.0) * ((double)dig_T2);
	var2 = ((((double)adc_T)/131072.0 - ((double)dig_T1)/8192.0) *
     3f6:	9b 01       	movw	r18, r22
     3f8:	ac 01       	movw	r20, r24
     3fa:	0e 94 84 07 	call	0xf08	; 0xf08 <__mulsf3>
     3fe:	6b 01       	movw	r12, r22
     400:	7c 01       	movw	r14, r24
	(((double)adc_T)/131072.0 - ((double)dig_T1)/8192.0)) *
	((double)dig_T3);
     402:	60 91 24 01 	lds	r22, 0x0124	; 0x800124 <dig_T3>
     406:	70 91 25 01 	lds	r23, 0x0125	; 0x800125 <dig_T3+0x1>
     40a:	07 2e       	mov	r0, r23
     40c:	00 0c       	add	r0, r0
     40e:	88 0b       	sbc	r24, r24
     410:	99 0b       	sbc	r25, r25
     412:	0e 94 d4 06 	call	0xda8	; 0xda8 <__floatsisf>
     416:	9b 01       	movw	r18, r22
     418:	ac 01       	movw	r20, r24
	adc_T = get_adc_T();
	
	// The following calculations implement the formula from the BMP280 datasheet
	// to calculate the 32-bit t_fine value.
	var1 = (((double)adc_T)/16384.0 - ((double)dig_T1)/1024.0) * ((double)dig_T2);
	var2 = ((((double)adc_T)/131072.0 - ((double)dig_T1)/8192.0) *
     41a:	c7 01       	movw	r24, r14
     41c:	b6 01       	movw	r22, r12
     41e:	0e 94 84 07 	call	0xf08	; 0xf08 <__mulsf3>
     422:	9b 01       	movw	r18, r22
     424:	ac 01       	movw	r20, r24
	(((double)adc_T)/131072.0 - ((double)dig_T1)/8192.0)) *
	((double)dig_T3);

	// t_fine is a signed 32-bit integer, but stored as uint32_t globally
	t_fine = (int32_t)(var1 + var2);
     426:	c5 01       	movw	r24, r10
     428:	b4 01       	movw	r22, r8
     42a:	0e 94 b9 05 	call	0xb72	; 0xb72 <__addsf3>
     42e:	0e 94 9c 06 	call	0xd38	; 0xd38 <__fixsfsi>
     432:	60 93 0e 01 	sts	0x010E, r22	; 0x80010e <__data_end>
     436:	70 93 0f 01 	sts	0x010F, r23	; 0x80010f <__data_end+0x1>
     43a:	80 93 10 01 	sts	0x0110, r24	; 0x800110 <__data_end+0x2>
     43e:	90 93 11 01 	sts	0x0111, r25	; 0x800111 <__data_end+0x3>
}
     442:	ff 90       	pop	r15
     444:	ef 90       	pop	r14
     446:	df 90       	pop	r13
     448:	cf 90       	pop	r12
     44a:	bf 90       	pop	r11
     44c:	af 90       	pop	r10
     44e:	9f 90       	pop	r9
     450:	8f 90       	pop	r8
     452:	7f 90       	pop	r7
     454:	6f 90       	pop	r6
     456:	5f 90       	pop	r5
     458:	4f 90       	pop	r4
     45a:	08 95       	ret

0000045c <get_adc_P>:
/**
 * @brief Reads the raw 20-bit pressure ADC value from the BMP280.
 * @return The uncompensated pressure value as a 32-bit integer.
 */
uint32_t get_adc_P(void)
{
     45c:	1f 93       	push	r17
     45e:	cf 93       	push	r28
     460:	df 93       	push	r29
	uint8_t MSB,LSB,XLSB;
	
	// Start I2C communication to read pressure registers (0xF7, 0xF8, 0xF9)
	i2c_START();
     462:	0e 94 24 04 	call	0x848	; 0x848 <i2c_START>
	i2c_TRANSMIT(0X76<<1);    // Send device address (0x76) + Write bit (0)
     466:	8c ee       	ldi	r24, 0xEC	; 236
     468:	0e 94 2c 04 	call	0x858	; 0x858 <i2c_TRANSMIT>
	i2c_TRANSMIT(0XF7);       // Send starting register address (pressure MSB)
     46c:	87 ef       	ldi	r24, 0xF7	; 247
     46e:	0e 94 2c 04 	call	0x858	; 0x858 <i2c_TRANSMIT>
	i2c_START();              // Repeated START condition
     472:	0e 94 24 04 	call	0x848	; 0x848 <i2c_START>
	i2c_TRANSMIT((0X76<<1)|1); // Send device address (0x76) + Read bit (1)
     476:	8d ee       	ldi	r24, 0xED	; 237
     478:	0e 94 2c 04 	call	0x858	; 0x858 <i2c_TRANSMIT>
	
	// Read 3 bytes: MSB, LSB, XLSB
	MSB = i2c_RECIEVE_with_ACK(); // Pressure MSB (bits 19:12)
     47c:	0e 94 36 04 	call	0x86c	; 0x86c <i2c_RECIEVE_with_ACK>
     480:	18 2f       	mov	r17, r24
	LSB = i2c_RECIEVE_with_ACK(); // Pressure LSB (bits 11:4)
     482:	0e 94 36 04 	call	0x86c	; 0x86c <i2c_RECIEVE_with_ACK>
     486:	c8 2f       	mov	r28, r24
	XLSB = i2c_RECIEVE_NACK();    // Pressure XLSB (bits 3:0 in bits 7:4 of the byte)
     488:	0e 94 40 04 	call	0x880	; 0x880 <i2c_RECIEVE_NACK>
     48c:	d8 2f       	mov	r29, r24
	
	i2c_STOP();
     48e:	0e 94 4a 04 	call	0x894	; 0x894 <i2c_STOP>
	// Construct the 20-bit raw ADC value: (MSB << 12) | (LSB << 4) | (XLSB >> 4)
	return ((uint32_t)MSB<<12 | (uint32_t)LSB<<4 | (uint32_t)XLSB>>4);
     492:	81 2f       	mov	r24, r17
     494:	90 e0       	ldi	r25, 0x00	; 0
     496:	a0 e0       	ldi	r26, 0x00	; 0
     498:	b0 e0       	ldi	r27, 0x00	; 0
     49a:	07 2e       	mov	r0, r23
     49c:	7c e0       	ldi	r23, 0x0C	; 12
     49e:	88 0f       	add	r24, r24
     4a0:	99 1f       	adc	r25, r25
     4a2:	aa 1f       	adc	r26, r26
     4a4:	bb 1f       	adc	r27, r27
     4a6:	7a 95       	dec	r23
     4a8:	d1 f7       	brne	.-12     	; 0x49e <get_adc_P+0x42>
     4aa:	70 2d       	mov	r23, r0
     4ac:	4c 2f       	mov	r20, r28
     4ae:	50 e0       	ldi	r21, 0x00	; 0
     4b0:	60 e0       	ldi	r22, 0x00	; 0
     4b2:	70 e0       	ldi	r23, 0x00	; 0
     4b4:	44 0f       	add	r20, r20
     4b6:	55 1f       	adc	r21, r21
     4b8:	66 1f       	adc	r22, r22
     4ba:	77 1f       	adc	r23, r23
     4bc:	44 0f       	add	r20, r20
     4be:	55 1f       	adc	r21, r21
     4c0:	66 1f       	adc	r22, r22
     4c2:	77 1f       	adc	r23, r23
     4c4:	44 0f       	add	r20, r20
     4c6:	55 1f       	adc	r21, r21
     4c8:	66 1f       	adc	r22, r22
     4ca:	77 1f       	adc	r23, r23
     4cc:	44 0f       	add	r20, r20
     4ce:	55 1f       	adc	r21, r21
     4d0:	66 1f       	adc	r22, r22
     4d2:	77 1f       	adc	r23, r23
     4d4:	84 2b       	or	r24, r20
     4d6:	95 2b       	or	r25, r21
     4d8:	a6 2b       	or	r26, r22
     4da:	b7 2b       	or	r27, r23
     4dc:	d2 95       	swap	r29
     4de:	df 70       	andi	r29, 0x0F	; 15
     4e0:	bc 01       	movw	r22, r24
     4e2:	cd 01       	movw	r24, r26
     4e4:	6d 2b       	or	r22, r29
}
     4e6:	df 91       	pop	r29
     4e8:	cf 91       	pop	r28
     4ea:	1f 91       	pop	r17
     4ec:	08 95       	ret

000004ee <get_temp>:
 * @return The temperature value as a double-precision floating point number.
 */
double get_temp(void)
{
	// Calculate the t_fine value first, as it's the intermediate temperature compensation value
	get_t_fine();
     4ee:	0e 94 9f 01 	call	0x33e	; 0x33e <get_t_fine>
	// Convert t_fine into the final temperature value (T = t_fine / 5120.0)
	double T = t_fine / 5120.0;
     4f2:	60 91 0e 01 	lds	r22, 0x010E	; 0x80010e <__data_end>
     4f6:	70 91 0f 01 	lds	r23, 0x010F	; 0x80010f <__data_end+0x1>
     4fa:	80 91 10 01 	lds	r24, 0x0110	; 0x800110 <__data_end+0x2>
     4fe:	90 91 11 01 	lds	r25, 0x0111	; 0x800111 <__data_end+0x3>
     502:	0e 94 d2 06 	call	0xda4	; 0xda4 <__floatunsisf>
     506:	20 e0       	ldi	r18, 0x00	; 0
     508:	30 e0       	ldi	r19, 0x00	; 0
     50a:	40 ea       	ldi	r20, 0xA0	; 160
     50c:	55 e4       	ldi	r21, 0x45	; 69
     50e:	0e 94 2a 06 	call	0xc54	; 0xc54 <__divsf3>
	return T;
}
     512:	08 95       	ret

00000514 <get_pres>:
 * @brief Calculates the compensated pressure in Pascals (Pa).
 * Note: get_t_fine() must be called before this function for accurate results.
 * @return The pressure value as a double-precision floating point number.
 */
double get_pres(void)
{
     514:	4f 92       	push	r4
     516:	5f 92       	push	r5
     518:	6f 92       	push	r6
     51a:	7f 92       	push	r7
     51c:	8f 92       	push	r8
     51e:	9f 92       	push	r9
     520:	af 92       	push	r10
     522:	bf 92       	push	r11
     524:	cf 92       	push	r12
     526:	df 92       	push	r13
     528:	ef 92       	push	r14
     52a:	ff 92       	push	r15
     52c:	cf 93       	push	r28
     52e:	df 93       	push	r29
     530:	00 d0       	rcall	.+0      	; 0x532 <get_pres+0x1e>
     532:	00 d0       	rcall	.+0      	; 0x534 <get_pres+0x20>
     534:	cd b7       	in	r28, 0x3d	; 61
     536:	de b7       	in	r29, 0x3e	; 62
	double var1, var2, P;
	// Read raw pressure ADC value
	uint32_t adc_P = get_adc_P();
     538:	0e 94 2e 02 	call	0x45c	; 0x45c <get_adc_P>
     53c:	2b 01       	movw	r4, r22
     53e:	3c 01       	movw	r6, r24
	
	// The following calculations implement the pressure compensation formula
	// from the BMP280 datasheet, using the stored t_fine value.
	
	var1 = ((double)t_fine / 2.0) - 64000.0;
     540:	60 91 0e 01 	lds	r22, 0x010E	; 0x80010e <__data_end>
     544:	70 91 0f 01 	lds	r23, 0x010F	; 0x80010f <__data_end+0x1>
     548:	80 91 10 01 	lds	r24, 0x0110	; 0x800110 <__data_end+0x2>
     54c:	90 91 11 01 	lds	r25, 0x0111	; 0x800111 <__data_end+0x3>
     550:	0e 94 d2 06 	call	0xda4	; 0xda4 <__floatunsisf>
     554:	20 e0       	ldi	r18, 0x00	; 0
     556:	30 e0       	ldi	r19, 0x00	; 0
     558:	40 e0       	ldi	r20, 0x00	; 0
     55a:	5f e3       	ldi	r21, 0x3F	; 63
     55c:	0e 94 84 07 	call	0xf08	; 0xf08 <__mulsf3>
     560:	20 e0       	ldi	r18, 0x00	; 0
     562:	30 e0       	ldi	r19, 0x00	; 0
     564:	4a e7       	ldi	r20, 0x7A	; 122
     566:	57 e4       	ldi	r21, 0x47	; 71
     568:	0e 94 b8 05 	call	0xb70	; 0xb70 <__subsf3>
     56c:	6b 01       	movw	r12, r22
     56e:	7c 01       	movw	r14, r24
	var2 = var1 * var1 * ((double)dig_P6) / 32768.0;
     570:	9b 01       	movw	r18, r22
     572:	ac 01       	movw	r20, r24
     574:	0e 94 84 07 	call	0xf08	; 0xf08 <__mulsf3>
     578:	4b 01       	movw	r8, r22
     57a:	5c 01       	movw	r10, r24
     57c:	60 91 18 01 	lds	r22, 0x0118	; 0x800118 <dig_P6>
     580:	70 91 19 01 	lds	r23, 0x0119	; 0x800119 <dig_P6+0x1>
     584:	07 2e       	mov	r0, r23
     586:	00 0c       	add	r0, r0
     588:	88 0b       	sbc	r24, r24
     58a:	99 0b       	sbc	r25, r25
     58c:	0e 94 d4 06 	call	0xda8	; 0xda8 <__floatsisf>
     590:	9b 01       	movw	r18, r22
     592:	ac 01       	movw	r20, r24
     594:	c5 01       	movw	r24, r10
     596:	b4 01       	movw	r22, r8
     598:	0e 94 84 07 	call	0xf08	; 0xf08 <__mulsf3>
     59c:	20 e0       	ldi	r18, 0x00	; 0
     59e:	30 e0       	ldi	r19, 0x00	; 0
     5a0:	40 e0       	ldi	r20, 0x00	; 0
     5a2:	58 e3       	ldi	r21, 0x38	; 56
     5a4:	0e 94 84 07 	call	0xf08	; 0xf08 <__mulsf3>
     5a8:	4b 01       	movw	r8, r22
     5aa:	5c 01       	movw	r10, r24
	var2 = var2 + var1 * ((double)dig_P5) * 2.0;
     5ac:	60 91 1a 01 	lds	r22, 0x011A	; 0x80011a <dig_P5>
     5b0:	70 91 1b 01 	lds	r23, 0x011B	; 0x80011b <dig_P5+0x1>
     5b4:	07 2e       	mov	r0, r23
     5b6:	00 0c       	add	r0, r0
     5b8:	88 0b       	sbc	r24, r24
     5ba:	99 0b       	sbc	r25, r25
     5bc:	0e 94 d4 06 	call	0xda8	; 0xda8 <__floatsisf>
     5c0:	9b 01       	movw	r18, r22
     5c2:	ac 01       	movw	r20, r24
     5c4:	c7 01       	movw	r24, r14
     5c6:	b6 01       	movw	r22, r12
     5c8:	0e 94 84 07 	call	0xf08	; 0xf08 <__mulsf3>
     5cc:	9b 01       	movw	r18, r22
     5ce:	ac 01       	movw	r20, r24
     5d0:	0e 94 b9 05 	call	0xb72	; 0xb72 <__addsf3>
     5d4:	9b 01       	movw	r18, r22
     5d6:	ac 01       	movw	r20, r24
     5d8:	c5 01       	movw	r24, r10
     5da:	b4 01       	movw	r22, r8
     5dc:	0e 94 b9 05 	call	0xb72	; 0xb72 <__addsf3>
	var2 = (var2 / 4.0) + (((double)dig_P4) * 65536.0);
     5e0:	20 e0       	ldi	r18, 0x00	; 0
     5e2:	30 e0       	ldi	r19, 0x00	; 0
     5e4:	40 e8       	ldi	r20, 0x80	; 128
     5e6:	5e e3       	ldi	r21, 0x3E	; 62
     5e8:	0e 94 84 07 	call	0xf08	; 0xf08 <__mulsf3>
     5ec:	4b 01       	movw	r8, r22
     5ee:	5c 01       	movw	r10, r24
     5f0:	60 91 1c 01 	lds	r22, 0x011C	; 0x80011c <dig_P4>
     5f4:	70 91 1d 01 	lds	r23, 0x011D	; 0x80011d <dig_P4+0x1>
     5f8:	07 2e       	mov	r0, r23
     5fa:	00 0c       	add	r0, r0
     5fc:	88 0b       	sbc	r24, r24
     5fe:	99 0b       	sbc	r25, r25
     600:	0e 94 d4 06 	call	0xda8	; 0xda8 <__floatsisf>
     604:	20 e0       	ldi	r18, 0x00	; 0
     606:	30 e0       	ldi	r19, 0x00	; 0
     608:	40 e8       	ldi	r20, 0x80	; 128
     60a:	57 e4       	ldi	r21, 0x47	; 71
     60c:	0e 94 84 07 	call	0xf08	; 0xf08 <__mulsf3>
     610:	9b 01       	movw	r18, r22
     612:	ac 01       	movw	r20, r24
     614:	c5 01       	movw	r24, r10
     616:	b4 01       	movw	r22, r8
     618:	0e 94 b9 05 	call	0xb72	; 0xb72 <__addsf3>
     61c:	69 83       	std	Y+1, r22	; 0x01
     61e:	7a 83       	std	Y+2, r23	; 0x02
     620:	8b 83       	std	Y+3, r24	; 0x03
     622:	9c 83       	std	Y+4, r25	; 0x04
	var1 = (((double)dig_P3) * var1 * var1 / 524288.0 + ((double)dig_P2) * var1) / 524288.0;
     624:	60 91 1e 01 	lds	r22, 0x011E	; 0x80011e <dig_P3>
     628:	70 91 1f 01 	lds	r23, 0x011F	; 0x80011f <dig_P3+0x1>
     62c:	07 2e       	mov	r0, r23
     62e:	00 0c       	add	r0, r0
     630:	88 0b       	sbc	r24, r24
     632:	99 0b       	sbc	r25, r25
     634:	0e 94 d4 06 	call	0xda8	; 0xda8 <__floatsisf>
     638:	9b 01       	movw	r18, r22
     63a:	ac 01       	movw	r20, r24
     63c:	c7 01       	movw	r24, r14
     63e:	b6 01       	movw	r22, r12
     640:	0e 94 84 07 	call	0xf08	; 0xf08 <__mulsf3>
     644:	9b 01       	movw	r18, r22
     646:	ac 01       	movw	r20, r24
     648:	c7 01       	movw	r24, r14
     64a:	b6 01       	movw	r22, r12
     64c:	0e 94 84 07 	call	0xf08	; 0xf08 <__mulsf3>
     650:	20 e0       	ldi	r18, 0x00	; 0
     652:	30 e0       	ldi	r19, 0x00	; 0
     654:	40 e0       	ldi	r20, 0x00	; 0
     656:	56 e3       	ldi	r21, 0x36	; 54
     658:	0e 94 84 07 	call	0xf08	; 0xf08 <__mulsf3>
     65c:	4b 01       	movw	r8, r22
     65e:	5c 01       	movw	r10, r24
     660:	60 91 20 01 	lds	r22, 0x0120	; 0x800120 <dig_P2>
     664:	70 91 21 01 	lds	r23, 0x0121	; 0x800121 <dig_P2+0x1>
     668:	07 2e       	mov	r0, r23
     66a:	00 0c       	add	r0, r0
     66c:	88 0b       	sbc	r24, r24
     66e:	99 0b       	sbc	r25, r25
     670:	0e 94 d4 06 	call	0xda8	; 0xda8 <__floatsisf>
     674:	9b 01       	movw	r18, r22
     676:	ac 01       	movw	r20, r24
     678:	c7 01       	movw	r24, r14
     67a:	b6 01       	movw	r22, r12
     67c:	0e 94 84 07 	call	0xf08	; 0xf08 <__mulsf3>
     680:	9b 01       	movw	r18, r22
     682:	ac 01       	movw	r20, r24
     684:	c5 01       	movw	r24, r10
     686:	b4 01       	movw	r22, r8
     688:	0e 94 b9 05 	call	0xb72	; 0xb72 <__addsf3>
     68c:	20 e0       	ldi	r18, 0x00	; 0
     68e:	30 e0       	ldi	r19, 0x00	; 0
     690:	40 e0       	ldi	r20, 0x00	; 0
     692:	56 e3       	ldi	r21, 0x36	; 54
     694:	0e 94 84 07 	call	0xf08	; 0xf08 <__mulsf3>
	var1 = (1.0 + var1 / 32768.0) * ((double)dig_P1);
     698:	20 e0       	ldi	r18, 0x00	; 0
     69a:	30 e0       	ldi	r19, 0x00	; 0
     69c:	40 e0       	ldi	r20, 0x00	; 0
     69e:	58 e3       	ldi	r21, 0x38	; 56
     6a0:	0e 94 84 07 	call	0xf08	; 0xf08 <__mulsf3>
     6a4:	20 e0       	ldi	r18, 0x00	; 0
     6a6:	30 e0       	ldi	r19, 0x00	; 0
     6a8:	40 e8       	ldi	r20, 0x80	; 128
     6aa:	5f e3       	ldi	r21, 0x3F	; 63
     6ac:	0e 94 b9 05 	call	0xb72	; 0xb72 <__addsf3>
     6b0:	6b 01       	movw	r12, r22
     6b2:	7c 01       	movw	r14, r24
     6b4:	60 91 22 01 	lds	r22, 0x0122	; 0x800122 <dig_P1>
     6b8:	70 91 23 01 	lds	r23, 0x0123	; 0x800123 <dig_P1+0x1>
     6bc:	80 e0       	ldi	r24, 0x00	; 0
     6be:	90 e0       	ldi	r25, 0x00	; 0
     6c0:	0e 94 d2 06 	call	0xda4	; 0xda4 <__floatunsisf>
     6c4:	9b 01       	movw	r18, r22
     6c6:	ac 01       	movw	r20, r24
     6c8:	c7 01       	movw	r24, r14
     6ca:	b6 01       	movw	r22, r12
     6cc:	0e 94 84 07 	call	0xf08	; 0xf08 <__mulsf3>
     6d0:	6b 01       	movw	r12, r22
     6d2:	7c 01       	movw	r14, r24

	if (var1 == 0.0)
     6d4:	20 e0       	ldi	r18, 0x00	; 0
     6d6:	30 e0       	ldi	r19, 0x00	; 0
     6d8:	a9 01       	movw	r20, r18
     6da:	0e 94 25 06 	call	0xc4a	; 0xc4a <__cmpsf2>
     6de:	88 23       	and	r24, r24
     6e0:	09 f4       	brne	.+2      	; 0x6e4 <get_pres+0x1d0>
     6e2:	87 c0       	rjmp	.+270    	; 0x7f2 <get_pres+0x2de>
	return 0; // avoid divide by zero if dig_P1 leads to zero var1

	P = 1048576.0 - (double)adc_P;
     6e4:	c3 01       	movw	r24, r6
     6e6:	b2 01       	movw	r22, r4
     6e8:	0e 94 d2 06 	call	0xda4	; 0xda4 <__floatunsisf>
     6ec:	9b 01       	movw	r18, r22
     6ee:	ac 01       	movw	r20, r24
     6f0:	60 e0       	ldi	r22, 0x00	; 0
     6f2:	70 e0       	ldi	r23, 0x00	; 0
     6f4:	80 e8       	ldi	r24, 0x80	; 128
     6f6:	99 e4       	ldi	r25, 0x49	; 73
     6f8:	0e 94 b8 05 	call	0xb70	; 0xb70 <__subsf3>
     6fc:	4b 01       	movw	r8, r22
     6fe:	5c 01       	movw	r10, r24
	// Calculate intermediate pressure value
	P = (P - (var2 / 4096.0)) * 6250.0 / var1;
     700:	20 e0       	ldi	r18, 0x00	; 0
     702:	30 e0       	ldi	r19, 0x00	; 0
     704:	40 e8       	ldi	r20, 0x80	; 128
     706:	59 e3       	ldi	r21, 0x39	; 57
     708:	69 81       	ldd	r22, Y+1	; 0x01
     70a:	7a 81       	ldd	r23, Y+2	; 0x02
     70c:	8b 81       	ldd	r24, Y+3	; 0x03
     70e:	9c 81       	ldd	r25, Y+4	; 0x04
     710:	0e 94 84 07 	call	0xf08	; 0xf08 <__mulsf3>
     714:	9b 01       	movw	r18, r22
     716:	ac 01       	movw	r20, r24
     718:	c5 01       	movw	r24, r10
     71a:	b4 01       	movw	r22, r8
     71c:	0e 94 b8 05 	call	0xb70	; 0xb70 <__subsf3>
     720:	20 e0       	ldi	r18, 0x00	; 0
     722:	30 e5       	ldi	r19, 0x50	; 80
     724:	43 ec       	ldi	r20, 0xC3	; 195
     726:	55 e4       	ldi	r21, 0x45	; 69
     728:	0e 94 84 07 	call	0xf08	; 0xf08 <__mulsf3>
     72c:	a7 01       	movw	r20, r14
     72e:	96 01       	movw	r18, r12
     730:	0e 94 2a 06 	call	0xc54	; 0xc54 <__divsf3>
     734:	6b 01       	movw	r12, r22
     736:	7c 01       	movw	r14, r24

	// Apply final compensation using dig_P7, dig_P8, and dig_P9
	var1 = ((double)dig_P9) * P * P / 2147483648.0;
     738:	60 91 12 01 	lds	r22, 0x0112	; 0x800112 <dig_P9>
     73c:	70 91 13 01 	lds	r23, 0x0113	; 0x800113 <dig_P9+0x1>
     740:	07 2e       	mov	r0, r23
     742:	00 0c       	add	r0, r0
     744:	88 0b       	sbc	r24, r24
     746:	99 0b       	sbc	r25, r25
     748:	0e 94 d4 06 	call	0xda8	; 0xda8 <__floatsisf>
     74c:	9b 01       	movw	r18, r22
     74e:	ac 01       	movw	r20, r24
     750:	c7 01       	movw	r24, r14
     752:	b6 01       	movw	r22, r12
     754:	0e 94 84 07 	call	0xf08	; 0xf08 <__mulsf3>
     758:	9b 01       	movw	r18, r22
     75a:	ac 01       	movw	r20, r24
     75c:	c7 01       	movw	r24, r14
     75e:	b6 01       	movw	r22, r12
     760:	0e 94 84 07 	call	0xf08	; 0xf08 <__mulsf3>
     764:	20 e0       	ldi	r18, 0x00	; 0
     766:	30 e0       	ldi	r19, 0x00	; 0
     768:	40 e0       	ldi	r20, 0x00	; 0
     76a:	50 e3       	ldi	r21, 0x30	; 48
     76c:	0e 94 84 07 	call	0xf08	; 0xf08 <__mulsf3>
     770:	4b 01       	movw	r8, r22
     772:	5c 01       	movw	r10, r24
	var2 = P * ((double)dig_P8) / 32768.0;
     774:	60 91 14 01 	lds	r22, 0x0114	; 0x800114 <dig_P8>
     778:	70 91 15 01 	lds	r23, 0x0115	; 0x800115 <dig_P8+0x1>
     77c:	07 2e       	mov	r0, r23
     77e:	00 0c       	add	r0, r0
     780:	88 0b       	sbc	r24, r24
     782:	99 0b       	sbc	r25, r25
     784:	0e 94 d4 06 	call	0xda8	; 0xda8 <__floatsisf>
     788:	9b 01       	movw	r18, r22
     78a:	ac 01       	movw	r20, r24
     78c:	c7 01       	movw	r24, r14
     78e:	b6 01       	movw	r22, r12
     790:	0e 94 84 07 	call	0xf08	; 0xf08 <__mulsf3>
     794:	20 e0       	ldi	r18, 0x00	; 0
     796:	30 e0       	ldi	r19, 0x00	; 0
     798:	40 e0       	ldi	r20, 0x00	; 0
     79a:	58 e3       	ldi	r21, 0x38	; 56
     79c:	0e 94 84 07 	call	0xf08	; 0xf08 <__mulsf3>
     7a0:	9b 01       	movw	r18, r22
     7a2:	ac 01       	movw	r20, r24

	P = P + (var1 + var2 + ((double)dig_P7)) / 16.0;
     7a4:	c5 01       	movw	r24, r10
     7a6:	b4 01       	movw	r22, r8
     7a8:	0e 94 b9 05 	call	0xb72	; 0xb72 <__addsf3>
     7ac:	4b 01       	movw	r8, r22
     7ae:	5c 01       	movw	r10, r24
     7b0:	60 91 16 01 	lds	r22, 0x0116	; 0x800116 <dig_P7>
     7b4:	70 91 17 01 	lds	r23, 0x0117	; 0x800117 <dig_P7+0x1>
     7b8:	07 2e       	mov	r0, r23
     7ba:	00 0c       	add	r0, r0
     7bc:	88 0b       	sbc	r24, r24
     7be:	99 0b       	sbc	r25, r25
     7c0:	0e 94 d4 06 	call	0xda8	; 0xda8 <__floatsisf>
     7c4:	9b 01       	movw	r18, r22
     7c6:	ac 01       	movw	r20, r24
     7c8:	c5 01       	movw	r24, r10
     7ca:	b4 01       	movw	r22, r8
     7cc:	0e 94 b9 05 	call	0xb72	; 0xb72 <__addsf3>
     7d0:	20 e0       	ldi	r18, 0x00	; 0
     7d2:	30 e0       	ldi	r19, 0x00	; 0
     7d4:	40 e8       	ldi	r20, 0x80	; 128
     7d6:	5d e3       	ldi	r21, 0x3D	; 61
     7d8:	0e 94 84 07 	call	0xf08	; 0xf08 <__mulsf3>
     7dc:	9b 01       	movw	r18, r22
     7de:	ac 01       	movw	r20, r24
     7e0:	c7 01       	movw	r24, r14
     7e2:	b6 01       	movw	r22, r12
     7e4:	0e 94 b9 05 	call	0xb72	; 0xb72 <__addsf3>

	return P; // Return Pressure in Pascals [Pa]
     7e8:	56 2f       	mov	r21, r22
     7ea:	47 2f       	mov	r20, r23
     7ec:	38 2f       	mov	r19, r24
     7ee:	29 2f       	mov	r18, r25
     7f0:	04 c0       	rjmp	.+8      	; 0x7fa <get_pres+0x2e6>
	var2 = (var2 / 4.0) + (((double)dig_P4) * 65536.0);
	var1 = (((double)dig_P3) * var1 * var1 / 524288.0 + ((double)dig_P2) * var1) / 524288.0;
	var1 = (1.0 + var1 / 32768.0) * ((double)dig_P1);

	if (var1 == 0.0)
	return 0; // avoid divide by zero if dig_P1 leads to zero var1
     7f2:	50 e0       	ldi	r21, 0x00	; 0
     7f4:	40 e0       	ldi	r20, 0x00	; 0
     7f6:	30 e0       	ldi	r19, 0x00	; 0
     7f8:	20 e0       	ldi	r18, 0x00	; 0
	var2 = P * ((double)dig_P8) / 32768.0;

	P = P + (var1 + var2 + ((double)dig_P7)) / 16.0;

	return P; // Return Pressure in Pascals [Pa]
     7fa:	65 2f       	mov	r22, r21
     7fc:	74 2f       	mov	r23, r20
     7fe:	83 2f       	mov	r24, r19
     800:	92 2f       	mov	r25, r18
     802:	0f 90       	pop	r0
     804:	0f 90       	pop	r0
     806:	0f 90       	pop	r0
     808:	0f 90       	pop	r0
     80a:	df 91       	pop	r29
     80c:	cf 91       	pop	r28
     80e:	ff 90       	pop	r15
     810:	ef 90       	pop	r14
     812:	df 90       	pop	r13
     814:	cf 90       	pop	r12
     816:	bf 90       	pop	r11
     818:	af 90       	pop	r10
     81a:	9f 90       	pop	r9
     81c:	8f 90       	pop	r8
     81e:	7f 90       	pop	r7
     820:	6f 90       	pop	r6
     822:	5f 90       	pop	r5
     824:	4f 90       	pop	r4
     826:	08 95       	ret

00000828 <i2c_init>:
	i2c_STOP();
	
	// Combine the bytes into the final 20-bit value (common for Bosch sensors):
	// MSB (bits 19:12) << 12 | LSB (bits 11:4) << 4 | XLSB (bits 3:0) >> 4
	return ((uint32_t)MSB<<12 | (uint32_t)LSB<<4 | (uint32_t)XLSB>>4);
}
     828:	e4 e6       	ldi	r30, 0x64	; 100
     82a:	f0 e0       	ldi	r31, 0x00	; 0
     82c:	80 81       	ld	r24, Z
     82e:	8f 77       	andi	r24, 0x7F	; 127
     830:	80 83       	st	Z, r24
     832:	88 e4       	ldi	r24, 0x48	; 72
     834:	80 93 b8 00 	sts	0x00B8, r24	; 0x8000b8 <__TEXT_REGION_LENGTH__+0x7f80b8>
     838:	ec eb       	ldi	r30, 0xBC	; 188
     83a:	f0 e0       	ldi	r31, 0x00	; 0
     83c:	80 81       	ld	r24, Z
     83e:	84 60       	ori	r24, 0x04	; 4
     840:	80 83       	st	Z, r24
     842:	10 92 b9 00 	sts	0x00B9, r1	; 0x8000b9 <__TEXT_REGION_LENGTH__+0x7f80b9>
     846:	08 95       	ret

00000848 <i2c_START>:
     848:	84 ea       	ldi	r24, 0xA4	; 164
     84a:	80 93 bc 00 	sts	0x00BC, r24	; 0x8000bc <__TEXT_REGION_LENGTH__+0x7f80bc>
     84e:	80 91 bc 00 	lds	r24, 0x00BC	; 0x8000bc <__TEXT_REGION_LENGTH__+0x7f80bc>
     852:	88 23       	and	r24, r24
     854:	e4 f7       	brge	.-8      	; 0x84e <i2c_START+0x6>
     856:	08 95       	ret

00000858 <i2c_TRANSMIT>:
     858:	80 93 bb 00 	sts	0x00BB, r24	; 0x8000bb <__TEXT_REGION_LENGTH__+0x7f80bb>
     85c:	84 e8       	ldi	r24, 0x84	; 132
     85e:	80 93 bc 00 	sts	0x00BC, r24	; 0x8000bc <__TEXT_REGION_LENGTH__+0x7f80bc>
     862:	80 91 bc 00 	lds	r24, 0x00BC	; 0x8000bc <__TEXT_REGION_LENGTH__+0x7f80bc>
     866:	88 23       	and	r24, r24
     868:	e4 f7       	brge	.-8      	; 0x862 <i2c_TRANSMIT+0xa>
     86a:	08 95       	ret

0000086c <i2c_RECIEVE_with_ACK>:
     86c:	84 ec       	ldi	r24, 0xC4	; 196
     86e:	80 93 bc 00 	sts	0x00BC, r24	; 0x8000bc <__TEXT_REGION_LENGTH__+0x7f80bc>
     872:	80 91 bc 00 	lds	r24, 0x00BC	; 0x8000bc <__TEXT_REGION_LENGTH__+0x7f80bc>
     876:	88 23       	and	r24, r24
     878:	e4 f7       	brge	.-8      	; 0x872 <i2c_RECIEVE_with_ACK+0x6>
     87a:	80 91 bb 00 	lds	r24, 0x00BB	; 0x8000bb <__TEXT_REGION_LENGTH__+0x7f80bb>
     87e:	08 95       	ret

00000880 <i2c_RECIEVE_NACK>:
     880:	84 e8       	ldi	r24, 0x84	; 132
     882:	80 93 bc 00 	sts	0x00BC, r24	; 0x8000bc <__TEXT_REGION_LENGTH__+0x7f80bc>
     886:	80 91 bc 00 	lds	r24, 0x00BC	; 0x8000bc <__TEXT_REGION_LENGTH__+0x7f80bc>
     88a:	88 23       	and	r24, r24
     88c:	e4 f7       	brge	.-8      	; 0x886 <i2c_RECIEVE_NACK+0x6>
     88e:	80 91 bb 00 	lds	r24, 0x00BB	; 0x8000bb <__TEXT_REGION_LENGTH__+0x7f80bb>
     892:	08 95       	ret

00000894 <i2c_STOP>:
     894:	84 e9       	ldi	r24, 0x94	; 148
     896:	80 93 bc 00 	sts	0x00BC, r24	; 0x8000bc <__TEXT_REGION_LENGTH__+0x7f80bc>
     89a:	08 95       	ret

0000089c <i2c_READ16>:
     89c:	cf 93       	push	r28
     89e:	df 93       	push	r29
     8a0:	c8 2f       	mov	r28, r24
     8a2:	d6 2f       	mov	r29, r22
     8a4:	0e 94 24 04 	call	0x848	; 0x848 <i2c_START>
     8a8:	8c 2f       	mov	r24, r28
     8aa:	88 0f       	add	r24, r24
     8ac:	0e 94 2c 04 	call	0x858	; 0x858 <i2c_TRANSMIT>
     8b0:	8d 2f       	mov	r24, r29
     8b2:	0e 94 2c 04 	call	0x858	; 0x858 <i2c_TRANSMIT>
     8b6:	0e 94 24 04 	call	0x848	; 0x848 <i2c_START>
     8ba:	8c 2f       	mov	r24, r28
     8bc:	90 e0       	ldi	r25, 0x00	; 0
     8be:	88 0f       	add	r24, r24
     8c0:	99 1f       	adc	r25, r25
     8c2:	81 60       	ori	r24, 0x01	; 1
     8c4:	0e 94 2c 04 	call	0x858	; 0x858 <i2c_TRANSMIT>
     8c8:	0e 94 36 04 	call	0x86c	; 0x86c <i2c_RECIEVE_with_ACK>
     8cc:	d8 2f       	mov	r29, r24
     8ce:	0e 94 40 04 	call	0x880	; 0x880 <i2c_RECIEVE_NACK>
     8d2:	c8 2f       	mov	r28, r24
     8d4:	0e 94 4a 04 	call	0x894	; 0x894 <i2c_STOP>
     8d8:	6c 2f       	mov	r22, r28
     8da:	70 e0       	ldi	r23, 0x00	; 0
     8dc:	76 2f       	mov	r23, r22
     8de:	66 27       	eor	r22, r22
     8e0:	6d 2b       	or	r22, r29
     8e2:	80 e0       	ldi	r24, 0x00	; 0
     8e4:	90 e0       	ldi	r25, 0x00	; 0
     8e6:	df 91       	pop	r29
     8e8:	cf 91       	pop	r28
     8ea:	08 95       	ret

000008ec <i2c_WRITE>:
 * @param SLA The 7-bit slave address.
 * @param REG The register address to write to.
 * @param val The 8-bit value to write into the register.
 */
void i2c_WRITE(uint8_t SLA,uint8_t REG,uint8_t val)
{
     8ec:	1f 93       	push	r17
     8ee:	cf 93       	push	r28
     8f0:	df 93       	push	r29
     8f2:	18 2f       	mov	r17, r24
     8f4:	d6 2f       	mov	r29, r22
     8f6:	c4 2f       	mov	r28, r20
	// 1. Send START condition
	i2c_START();
     8f8:	0e 94 24 04 	call	0x848	; 0x848 <i2c_START>
	
	// 2. Transmit Slave Address + Write bit (0)
	i2c_TRANSMIT(SLA<<1);
     8fc:	81 2f       	mov	r24, r17
     8fe:	88 0f       	add	r24, r24
     900:	0e 94 2c 04 	call	0x858	; 0x858 <i2c_TRANSMIT>
	
	// 3. Transmit Register Address (where to write the data)
	i2c_TRANSMIT(REG);
     904:	8d 2f       	mov	r24, r29
     906:	0e 94 2c 04 	call	0x858	; 0x858 <i2c_TRANSMIT>
	
	// 4. Transmit Data Value
	i2c_TRANSMIT(val);
     90a:	8c 2f       	mov	r24, r28
     90c:	0e 94 2c 04 	call	0x858	; 0x858 <i2c_TRANSMIT>
	
	// 5. Send STOP condition
	i2c_STOP();
     910:	0e 94 4a 04 	call	0x894	; 0x894 <i2c_STOP>
		
     914:	df 91       	pop	r29
     916:	cf 91       	pop	r28
     918:	1f 91       	pop	r17
     91a:	08 95       	ret

0000091c <enable_pulse>:
/**
 * @brief Clears the entire LCD screen and sets the cursor to home (0,0).
 */
void screen_clear(void)
{
	send_cmd(0x01); // Clear Display command
     91c:	88 b1       	in	r24, 0x08	; 8
     91e:	82 60       	ori	r24, 0x02	; 2
     920:	88 b9       	out	0x08, r24	; 8
     922:	85 e0       	ldi	r24, 0x05	; 5
     924:	8a 95       	dec	r24
     926:	f1 f7       	brne	.-4      	; 0x924 <enable_pulse+0x8>
     928:	00 00       	nop
     92a:	88 b1       	in	r24, 0x08	; 8
     92c:	8d 7f       	andi	r24, 0xFD	; 253
     92e:	88 b9       	out	0x08, r24	; 8
     930:	87 ec       	ldi	r24, 0xC7	; 199
     932:	90 e0       	ldi	r25, 0x00	; 0
     934:	01 97       	sbiw	r24, 0x01	; 1
     936:	f1 f7       	brne	.-4      	; 0x934 <enable_pulse+0x18>
     938:	00 c0       	rjmp	.+0      	; 0x93a <enable_pulse+0x1e>
     93a:	00 00       	nop
     93c:	08 95       	ret

0000093e <send_nibble>:
     93e:	9b b1       	in	r25, 0x0b	; 11
     940:	9f 70       	andi	r25, 0x0F	; 15
     942:	9b b9       	out	0x0b, r25	; 11
     944:	83 ff       	sbrs	r24, 3
     946:	03 c0       	rjmp	.+6      	; 0x94e <send_nibble+0x10>
     948:	9b b1       	in	r25, 0x0b	; 11
     94a:	90 68       	ori	r25, 0x80	; 128
     94c:	9b b9       	out	0x0b, r25	; 11
     94e:	82 ff       	sbrs	r24, 2
     950:	03 c0       	rjmp	.+6      	; 0x958 <send_nibble+0x1a>
     952:	9b b1       	in	r25, 0x0b	; 11
     954:	90 64       	ori	r25, 0x40	; 64
     956:	9b b9       	out	0x0b, r25	; 11
     958:	81 ff       	sbrs	r24, 1
     95a:	03 c0       	rjmp	.+6      	; 0x962 <send_nibble+0x24>
     95c:	9b b1       	in	r25, 0x0b	; 11
     95e:	90 62       	ori	r25, 0x20	; 32
     960:	9b b9       	out	0x0b, r25	; 11
     962:	80 ff       	sbrs	r24, 0
     964:	03 c0       	rjmp	.+6      	; 0x96c <send_nibble+0x2e>
     966:	8b b1       	in	r24, 0x0b	; 11
     968:	80 61       	ori	r24, 0x10	; 16
     96a:	8b b9       	out	0x0b, r24	; 11
     96c:	0e 94 8e 04 	call	0x91c	; 0x91c <enable_pulse>
     970:	08 95       	ret

00000972 <send_byte>:
     972:	cf 93       	push	r28
     974:	c8 2f       	mov	r28, r24
     976:	61 30       	cpi	r22, 0x01	; 1
     978:	21 f4       	brne	.+8      	; 0x982 <send_byte+0x10>
     97a:	88 b1       	in	r24, 0x08	; 8
     97c:	81 60       	ori	r24, 0x01	; 1
     97e:	88 b9       	out	0x08, r24	; 8
     980:	03 c0       	rjmp	.+6      	; 0x988 <send_byte+0x16>
     982:	88 b1       	in	r24, 0x08	; 8
     984:	8e 7f       	andi	r24, 0xFE	; 254
     986:	88 b9       	out	0x08, r24	; 8
     988:	8c 2f       	mov	r24, r28
     98a:	82 95       	swap	r24
     98c:	8f 70       	andi	r24, 0x0F	; 15
     98e:	0e 94 9f 04 	call	0x93e	; 0x93e <send_nibble>
     992:	8c 2f       	mov	r24, r28
     994:	8f 70       	andi	r24, 0x0F	; 15
     996:	0e 94 9f 04 	call	0x93e	; 0x93e <send_nibble>
     99a:	cf 91       	pop	r28
     99c:	08 95       	ret

0000099e <send_cmd>:
     99e:	cf 93       	push	r28
     9a0:	c8 2f       	mov	r28, r24
     9a2:	60 e0       	ldi	r22, 0x00	; 0
     9a4:	0e 94 b9 04 	call	0x972	; 0x972 <send_byte>
     9a8:	85 ed       	ldi	r24, 0xD5	; 213
     9aa:	8a 95       	dec	r24
     9ac:	f1 f7       	brne	.-4      	; 0x9aa <send_cmd+0xc>
     9ae:	00 00       	nop
     9b0:	c1 50       	subi	r28, 0x01	; 1
     9b2:	c2 30       	cpi	r28, 0x02	; 2
     9b4:	30 f4       	brcc	.+12     	; 0x9c2 <send_cmd+0x24>
     9b6:	8f e3       	ldi	r24, 0x3F	; 63
     9b8:	9f e1       	ldi	r25, 0x1F	; 31
     9ba:	01 97       	sbiw	r24, 0x01	; 1
     9bc:	f1 f7       	brne	.-4      	; 0x9ba <send_cmd+0x1c>
     9be:	00 c0       	rjmp	.+0      	; 0x9c0 <send_cmd+0x22>
     9c0:	00 00       	nop
     9c2:	cf 91       	pop	r28
     9c4:	08 95       	ret

000009c6 <send_data>:
     9c6:	61 e0       	ldi	r22, 0x01	; 1
     9c8:	0e 94 b9 04 	call	0x972	; 0x972 <send_byte>
     9cc:	85 ed       	ldi	r24, 0xD5	; 213
     9ce:	8a 95       	dec	r24
     9d0:	f1 f7       	brne	.-4      	; 0x9ce <send_data+0x8>
     9d2:	00 00       	nop
     9d4:	08 95       	ret

000009d6 <display>:
     9d6:	cf 93       	push	r28
     9d8:	df 93       	push	r29
     9da:	ec 01       	movw	r28, r24
     9dc:	03 c0       	rjmp	.+6      	; 0x9e4 <display+0xe>
     9de:	21 96       	adiw	r28, 0x01	; 1
     9e0:	0e 94 e3 04 	call	0x9c6	; 0x9c6 <send_data>
     9e4:	88 81       	ld	r24, Y
     9e6:	81 11       	cpse	r24, r1
     9e8:	fa cf       	rjmp	.-12     	; 0x9de <display+0x8>
     9ea:	df 91       	pop	r29
     9ec:	cf 91       	pop	r28
     9ee:	08 95       	ret

000009f0 <send_double>:
     9f0:	0f 93       	push	r16
     9f2:	1f 93       	push	r17
     9f4:	cf 93       	push	r28
     9f6:	df 93       	push	r29
     9f8:	cd b7       	in	r28, 0x3d	; 61
     9fa:	de b7       	in	r29, 0x3e	; 62
     9fc:	a8 97       	sbiw	r28, 0x28	; 40
     9fe:	0f b6       	in	r0, 0x3f	; 63
     a00:	f8 94       	cli
     a02:	de bf       	out	0x3e, r29	; 62
     a04:	0f be       	out	0x3f, r0	; 63
     a06:	cd bf       	out	0x3d, r28	; 61
     a08:	8e 01       	movw	r16, r28
     a0a:	0f 5f       	subi	r16, 0xFF	; 255
     a0c:	1f 4f       	sbci	r17, 0xFF	; 255
     a0e:	23 e0       	ldi	r18, 0x03	; 3
     a10:	44 e0       	ldi	r20, 0x04	; 4
     a12:	0e 94 f1 07 	call	0xfe2	; 0xfe2 <dtostrf>
     a16:	c8 01       	movw	r24, r16
     a18:	0e 94 eb 04 	call	0x9d6	; 0x9d6 <display>
     a1c:	a8 96       	adiw	r28, 0x28	; 40
     a1e:	0f b6       	in	r0, 0x3f	; 63
     a20:	f8 94       	cli
     a22:	de bf       	out	0x3e, r29	; 62
     a24:	0f be       	out	0x3f, r0	; 63
     a26:	cd bf       	out	0x3d, r28	; 61
     a28:	df 91       	pop	r29
     a2a:	cf 91       	pop	r28
     a2c:	1f 91       	pop	r17
     a2e:	0f 91       	pop	r16
     a30:	08 95       	ret

00000a32 <cursor_return>:
/**
 * @brief Returns the cursor to the home position (0,0) without clearing the display.
 */
void cursor_return(void)
{
	send_cmd(0x02); // Return Home command
     a32:	82 e0       	ldi	r24, 0x02	; 2
     a34:	0e 94 cf 04 	call	0x99e	; 0x99e <send_cmd>
     a38:	08 95       	ret

00000a3a <lcd_set_cursor>:
 */
void lcd_set_cursor(uint8_t row,uint8_t col)
{
	// Calculate the DDRAM address based on row and column:
	// Row 0 address starts at 0x00, Row 1 address starts at 0x40.
	uint8_t addr = (row ? 0x40 : 0x00) + col;
     a3a:	88 23       	and	r24, r24
     a3c:	11 f0       	breq	.+4      	; 0xa42 <lcd_set_cursor+0x8>
     a3e:	80 e4       	ldi	r24, 0x40	; 64
     a40:	01 c0       	rjmp	.+2      	; 0xa44 <lcd_set_cursor+0xa>
     a42:	80 e0       	ldi	r24, 0x00	; 0
     a44:	86 0f       	add	r24, r22
	// Set DDRAM Address command (0x80) ORed with the calculated address
	send_cmd(0x80|addr); 
     a46:	80 68       	ori	r24, 0x80	; 128
     a48:	0e 94 cf 04 	call	0x99e	; 0x99e <send_cmd>
     a4c:	08 95       	ret

00000a4e <lcd_init>:
 * This is a specific sequence of commands and timings required by the HD44780 controller.
 */
void lcd_init(void)
{
	// Set RS and E pins as outputs and set them high initially (assumes CTRL is the DDR register for PORTC)
	CTRL |= (1<<RS|1<<E); 
     a4e:	87 b1       	in	r24, 0x07	; 7
     a50:	83 60       	ori	r24, 0x03	; 3
     a52:	87 b9       	out	0x07, r24	; 7
	// Set D4-D7 pins as outputs (assumes DATA is the DDR register for PORTD)
	DATA |= (1<<D7|1<<D6|1<<D5|1<<D4); 
     a54:	8a b1       	in	r24, 0x0a	; 10
     a56:	80 6f       	ori	r24, 0xF0	; 240
     a58:	8a b9       	out	0x0a, r24	; 10
	#else
		//round up by default
		__ticks_dc = (uint32_t)(ceil(fabs(__tmp)));
	#endif

	__builtin_avr_delay_cycles(__ticks_dc);
     a5a:	2f ef       	ldi	r18, 0xFF	; 255
     a5c:	89 ef       	ldi	r24, 0xF9	; 249
     a5e:	90 e0       	ldi	r25, 0x00	; 0
     a60:	21 50       	subi	r18, 0x01	; 1
     a62:	80 40       	sbci	r24, 0x00	; 0
     a64:	90 40       	sbci	r25, 0x00	; 0
     a66:	e1 f7       	brne	.-8      	; 0xa60 <lcd_init+0x12>
     a68:	00 c0       	rjmp	.+0      	; 0xa6a <lcd_init+0x1c>
     a6a:	00 00       	nop
	
	// Initial long delay required after power-on
	_delay_ms(20);
	
	// Start initialization sequence (always in 8-bit mode for the first steps)
	PORTC &= ~(1<<RS); // Set RS low (Command mode)
     a6c:	88 b1       	in	r24, 0x08	; 8
     a6e:	8e 7f       	andi	r24, 0xFE	; 254
     a70:	88 b9       	out	0x08, r24	; 8
	PORTC &= ~(1<<E);  // Set E low
     a72:	88 b1       	in	r24, 0x08	; 8
     a74:	8d 7f       	andi	r24, 0xFD	; 253
     a76:	88 b9       	out	0x08, r24	; 8
	
	// 1. Send 0x03 (8-bit command)
	send_nibble(0x03);
     a78:	83 e0       	ldi	r24, 0x03	; 3
     a7a:	0e 94 9f 04 	call	0x93e	; 0x93e <send_nibble>
     a7e:	8f e1       	ldi	r24, 0x1F	; 31
     a80:	9e e4       	ldi	r25, 0x4E	; 78
     a82:	01 97       	sbiw	r24, 0x01	; 1
     a84:	f1 f7       	brne	.-4      	; 0xa82 <lcd_init+0x34>
     a86:	00 c0       	rjmp	.+0      	; 0xa88 <lcd_init+0x3a>
     a88:	00 00       	nop
	_delay_ms(5);
	
	// 2. Send 0x03
	send_nibble(0x03);
     a8a:	83 e0       	ldi	r24, 0x03	; 3
     a8c:	0e 94 9f 04 	call	0x93e	; 0x93e <send_nibble>
	#else
		//round up by default
		__ticks_dc = (uint32_t)(ceil(fabs(__tmp)));
	#endif

	__builtin_avr_delay_cycles(__ticks_dc);
     a90:	87 e5       	ldi	r24, 0x57	; 87
     a92:	92 e0       	ldi	r25, 0x02	; 2
     a94:	01 97       	sbiw	r24, 0x01	; 1
     a96:	f1 f7       	brne	.-4      	; 0xa94 <lcd_init+0x46>
     a98:	00 c0       	rjmp	.+0      	; 0xa9a <lcd_init+0x4c>
     a9a:	00 00       	nop
	_delay_us(150);
	
	// 3. Send 0x03
	send_nibble(0x03);
     a9c:	83 e0       	ldi	r24, 0x03	; 3
     a9e:	0e 94 9f 04 	call	0x93e	; 0x93e <send_nibble>
     aa2:	87 e5       	ldi	r24, 0x57	; 87
     aa4:	92 e0       	ldi	r25, 0x02	; 2
     aa6:	01 97       	sbiw	r24, 0x01	; 1
     aa8:	f1 f7       	brne	.-4      	; 0xaa6 <lcd_init+0x58>
     aaa:	00 c0       	rjmp	.+0      	; 0xaac <lcd_init+0x5e>
     aac:	00 00       	nop
	_delay_us(150);
	
	// 4. Set 4-bit mode: Send 0x02
	send_nibble(0x02);
     aae:	82 e0       	ldi	r24, 0x02	; 2
     ab0:	0e 94 9f 04 	call	0x93e	; 0x93e <send_nibble>
     ab4:	87 e5       	ldi	r24, 0x57	; 87
     ab6:	92 e0       	ldi	r25, 0x02	; 2
     ab8:	01 97       	sbiw	r24, 0x01	; 1
     aba:	f1 f7       	brne	.-4      	; 0xab8 <lcd_init+0x6a>
     abc:	00 c0       	rjmp	.+0      	; 0xabe <lcd_init+0x70>
     abe:	00 00       	nop
	_delay_us(150);
	
	// --- Now in 4-bit mode, subsequent commands must be 8-bit (two nibbles) ---
	
	// Function Set: 0x28 (4-bit mode, 2 lines, 5x8 dots)
	send_cmd(0x28);
     ac0:	88 e2       	ldi	r24, 0x28	; 40
     ac2:	0e 94 cf 04 	call	0x99e	; 0x99e <send_cmd>
     ac6:	95 ed       	ldi	r25, 0xD5	; 213
     ac8:	9a 95       	dec	r25
     aca:	f1 f7       	brne	.-4      	; 0xac8 <lcd_init+0x7a>
     acc:	00 00       	nop
	_delay_us(40);
	
	// Display OFF/Control: 0x08 (Display off, Cursor off, Blink off)
	send_cmd(0x08);
     ace:	88 e0       	ldi	r24, 0x08	; 8
     ad0:	0e 94 cf 04 	call	0x99e	; 0x99e <send_cmd>
     ad4:	25 ed       	ldi	r18, 0xD5	; 213
     ad6:	2a 95       	dec	r18
     ad8:	f1 f7       	brne	.-4      	; 0xad6 <lcd_init+0x88>
     ada:	00 00       	nop
	_delay_us(40);
	
	// Clear Display: 0x01
	send_cmd(0x01);
     adc:	81 e0       	ldi	r24, 0x01	; 1
     ade:	0e 94 cf 04 	call	0x99e	; 0x99e <send_cmd>
     ae2:	85 ed       	ldi	r24, 0xD5	; 213
     ae4:	8a 95       	dec	r24
     ae6:	f1 f7       	brne	.-4      	; 0xae4 <lcd_init+0x96>
     ae8:	00 00       	nop
	_delay_us(40);
	
	// Entry Mode Set: 0x06 (Increment cursor, no shift)
	send_cmd(0x06);
     aea:	86 e0       	ldi	r24, 0x06	; 6
     aec:	0e 94 cf 04 	call	0x99e	; 0x99e <send_cmd>
     af0:	95 ed       	ldi	r25, 0xD5	; 213
     af2:	9a 95       	dec	r25
     af4:	f1 f7       	brne	.-4      	; 0xaf2 <lcd_init+0xa4>
     af6:	00 00       	nop
	_delay_us(40);
	
	// Display ON/Control: 0x0C (Display ON, Cursor OFF, Blink OFF) - Ready for user output
	send_cmd(0x0C);
     af8:	8c e0       	ldi	r24, 0x0C	; 12
     afa:	0e 94 cf 04 	call	0x99e	; 0x99e <send_cmd>
     afe:	08 95       	ret

00000b00 <main>:
int main(void)
{
	// --- Initialization Sequence ---
	
	// Initialize the LCD in 4-bit mode
	lcd_init();
     b00:	0e 94 27 05 	call	0xa4e	; 0xa4e <lcd_init>
	
	// Initialize the AVR's TWI (I2C) hardware
	i2c_init();
     b04:	0e 94 14 04 	call	0x828	; 0x828 <i2c_init>
	
	// Initialize the BMP280 for temperature measurements and read temp calibration data
	temp_init();
     b08:	0e 94 d0 00 	call	0x1a0	; 0x1a0 <temp_init>
	
	// Initialize the BMP280 for pressure measurements and read pressure calibration data
	pres_init();
     b0c:	0e 94 fb 00 	call	0x1f6	; 0x1f6 <pres_init>
    while (1) // Main loop for continuous operation
    {
		// --- Temperature Display (Row 0) ---
		
		// Display the label "T: "
		display("T: ");
     b10:	82 e0       	ldi	r24, 0x02	; 2
     b12:	91 e0       	ldi	r25, 0x01	; 1
     b14:	0e 94 eb 04 	call	0x9d6	; 0x9d6 <display>
		
		// Get the compensated temperature (C) and display it as a double
		send_double(get_temp());
     b18:	0e 94 77 02 	call	0x4ee	; 0x4ee <get_temp>
     b1c:	0e 94 f8 04 	call	0x9f0	; 0x9f0 <send_double>
		
		// Display the degree symbol (ASCII code 0b11011111 = 0xDF, commonly the degree symbol on HD44780)
		send_data(0b11011111);
     b20:	8f ed       	ldi	r24, 0xDF	; 223
     b22:	0e 94 e3 04 	call	0x9c6	; 0x9c6 <send_data>
		
		// Display the unit 'C' for Celsius
		send_data('C');
     b26:	83 e4       	ldi	r24, 0x43	; 67
     b28:	0e 94 e3 04 	call	0x9c6	; 0x9c6 <send_data>

		// --- Pressure Display (Row 1) ---
		
		// Move the cursor to the second row (row 1, column 0)
		lcd_set_cursor(1,0);
     b2c:	60 e0       	ldi	r22, 0x00	; 0
     b2e:	81 e0       	ldi	r24, 0x01	; 1
     b30:	0e 94 1d 05 	call	0xa3a	; 0xa3a <lcd_set_cursor>
		
		// Display the label "P: "
		display("P: ");
     b34:	86 e0       	ldi	r24, 0x06	; 6
     b36:	91 e0       	ldi	r25, 0x01	; 1
     b38:	0e 94 eb 04 	call	0x9d6	; 0x9d6 <display>
		
		// Get the compensated pressure (in Pascals, Pa)
		// Divide by 100.0 to convert Pa to hectoPascals (hPa) or millibars (mbar)
		send_double(get_pres()/100.0);
     b3c:	0e 94 8a 02 	call	0x514	; 0x514 <get_pres>
     b40:	20 e0       	ldi	r18, 0x00	; 0
     b42:	30 e0       	ldi	r19, 0x00	; 0
     b44:	48 ec       	ldi	r20, 0xC8	; 200
     b46:	52 e4       	ldi	r21, 0x42	; 66
     b48:	0e 94 2a 06 	call	0xc54	; 0xc54 <__divsf3>
     b4c:	0e 94 f8 04 	call	0x9f0	; 0x9f0 <send_double>
		
		// Display the unit "hPa"
		display("hPa");
     b50:	8a e0       	ldi	r24, 0x0A	; 10
     b52:	91 e0       	ldi	r25, 0x01	; 1
     b54:	0e 94 eb 04 	call	0x9d6	; 0x9d6 <display>
	#else
		//round up by default
		__ticks_dc = (uint32_t)(ceil(fabs(__tmp)));
	#endif

	__builtin_avr_delay_cycles(__ticks_dc);
     b58:	2f ef       	ldi	r18, 0xFF	; 255
     b5a:	83 ed       	ldi	r24, 0xD3	; 211
     b5c:	90 e3       	ldi	r25, 0x30	; 48
     b5e:	21 50       	subi	r18, 0x01	; 1
     b60:	80 40       	sbci	r24, 0x00	; 0
     b62:	90 40       	sbci	r25, 0x00	; 0
     b64:	e1 f7       	brne	.-8      	; 0xb5e <main+0x5e>
     b66:	00 c0       	rjmp	.+0      	; 0xb68 <main+0x68>
     b68:	00 00       	nop
		
		// Wait for 1 second before refreshing the display
		_delay_ms(1000);
		
		// Move the cursor back to the start of the first line (0,0) for the next refresh
		cursor_return();
     b6a:	0e 94 19 05 	call	0xa32	; 0xa32 <cursor_return>
     b6e:	d0 cf       	rjmp	.-96     	; 0xb10 <main+0x10>

00000b70 <__subsf3>:
     b70:	50 58       	subi	r21, 0x80	; 128

00000b72 <__addsf3>:
     b72:	bb 27       	eor	r27, r27
     b74:	aa 27       	eor	r26, r26
     b76:	0e 94 d0 05 	call	0xba0	; 0xba0 <__addsf3x>
     b7a:	0c 94 4a 07 	jmp	0xe94	; 0xe94 <__fp_round>
     b7e:	0e 94 3c 07 	call	0xe78	; 0xe78 <__fp_pscA>
     b82:	38 f0       	brcs	.+14     	; 0xb92 <__addsf3+0x20>
     b84:	0e 94 43 07 	call	0xe86	; 0xe86 <__fp_pscB>
     b88:	20 f0       	brcs	.+8      	; 0xb92 <__addsf3+0x20>
     b8a:	39 f4       	brne	.+14     	; 0xb9a <__addsf3+0x28>
     b8c:	9f 3f       	cpi	r25, 0xFF	; 255
     b8e:	19 f4       	brne	.+6      	; 0xb96 <__addsf3+0x24>
     b90:	26 f4       	brtc	.+8      	; 0xb9a <__addsf3+0x28>
     b92:	0c 94 39 07 	jmp	0xe72	; 0xe72 <__fp_nan>
     b96:	0e f4       	brtc	.+2      	; 0xb9a <__addsf3+0x28>
     b98:	e0 95       	com	r30
     b9a:	e7 fb       	bst	r30, 7
     b9c:	0c 94 33 07 	jmp	0xe66	; 0xe66 <__fp_inf>

00000ba0 <__addsf3x>:
     ba0:	e9 2f       	mov	r30, r25
     ba2:	0e 94 5b 07 	call	0xeb6	; 0xeb6 <__fp_split3>
     ba6:	58 f3       	brcs	.-42     	; 0xb7e <__addsf3+0xc>
     ba8:	ba 17       	cp	r27, r26
     baa:	62 07       	cpc	r22, r18
     bac:	73 07       	cpc	r23, r19
     bae:	84 07       	cpc	r24, r20
     bb0:	95 07       	cpc	r25, r21
     bb2:	20 f0       	brcs	.+8      	; 0xbbc <__addsf3x+0x1c>
     bb4:	79 f4       	brne	.+30     	; 0xbd4 <__addsf3x+0x34>
     bb6:	a6 f5       	brtc	.+104    	; 0xc20 <__addsf3x+0x80>
     bb8:	0c 94 7d 07 	jmp	0xefa	; 0xefa <__fp_zero>
     bbc:	0e f4       	brtc	.+2      	; 0xbc0 <__addsf3x+0x20>
     bbe:	e0 95       	com	r30
     bc0:	0b 2e       	mov	r0, r27
     bc2:	ba 2f       	mov	r27, r26
     bc4:	a0 2d       	mov	r26, r0
     bc6:	0b 01       	movw	r0, r22
     bc8:	b9 01       	movw	r22, r18
     bca:	90 01       	movw	r18, r0
     bcc:	0c 01       	movw	r0, r24
     bce:	ca 01       	movw	r24, r20
     bd0:	a0 01       	movw	r20, r0
     bd2:	11 24       	eor	r1, r1
     bd4:	ff 27       	eor	r31, r31
     bd6:	59 1b       	sub	r21, r25
     bd8:	99 f0       	breq	.+38     	; 0xc00 <__addsf3x+0x60>
     bda:	59 3f       	cpi	r21, 0xF9	; 249
     bdc:	50 f4       	brcc	.+20     	; 0xbf2 <__addsf3x+0x52>
     bde:	50 3e       	cpi	r21, 0xE0	; 224
     be0:	68 f1       	brcs	.+90     	; 0xc3c <__addsf3x+0x9c>
     be2:	1a 16       	cp	r1, r26
     be4:	f0 40       	sbci	r31, 0x00	; 0
     be6:	a2 2f       	mov	r26, r18
     be8:	23 2f       	mov	r18, r19
     bea:	34 2f       	mov	r19, r20
     bec:	44 27       	eor	r20, r20
     bee:	58 5f       	subi	r21, 0xF8	; 248
     bf0:	f3 cf       	rjmp	.-26     	; 0xbd8 <__addsf3x+0x38>
     bf2:	46 95       	lsr	r20
     bf4:	37 95       	ror	r19
     bf6:	27 95       	ror	r18
     bf8:	a7 95       	ror	r26
     bfa:	f0 40       	sbci	r31, 0x00	; 0
     bfc:	53 95       	inc	r21
     bfe:	c9 f7       	brne	.-14     	; 0xbf2 <__addsf3x+0x52>
     c00:	7e f4       	brtc	.+30     	; 0xc20 <__addsf3x+0x80>
     c02:	1f 16       	cp	r1, r31
     c04:	ba 0b       	sbc	r27, r26
     c06:	62 0b       	sbc	r22, r18
     c08:	73 0b       	sbc	r23, r19
     c0a:	84 0b       	sbc	r24, r20
     c0c:	ba f0       	brmi	.+46     	; 0xc3c <__addsf3x+0x9c>
     c0e:	91 50       	subi	r25, 0x01	; 1
     c10:	a1 f0       	breq	.+40     	; 0xc3a <__addsf3x+0x9a>
     c12:	ff 0f       	add	r31, r31
     c14:	bb 1f       	adc	r27, r27
     c16:	66 1f       	adc	r22, r22
     c18:	77 1f       	adc	r23, r23
     c1a:	88 1f       	adc	r24, r24
     c1c:	c2 f7       	brpl	.-16     	; 0xc0e <__addsf3x+0x6e>
     c1e:	0e c0       	rjmp	.+28     	; 0xc3c <__addsf3x+0x9c>
     c20:	ba 0f       	add	r27, r26
     c22:	62 1f       	adc	r22, r18
     c24:	73 1f       	adc	r23, r19
     c26:	84 1f       	adc	r24, r20
     c28:	48 f4       	brcc	.+18     	; 0xc3c <__addsf3x+0x9c>
     c2a:	87 95       	ror	r24
     c2c:	77 95       	ror	r23
     c2e:	67 95       	ror	r22
     c30:	b7 95       	ror	r27
     c32:	f7 95       	ror	r31
     c34:	9e 3f       	cpi	r25, 0xFE	; 254
     c36:	08 f0       	brcs	.+2      	; 0xc3a <__addsf3x+0x9a>
     c38:	b0 cf       	rjmp	.-160    	; 0xb9a <__addsf3+0x28>
     c3a:	93 95       	inc	r25
     c3c:	88 0f       	add	r24, r24
     c3e:	08 f0       	brcs	.+2      	; 0xc42 <__addsf3x+0xa2>
     c40:	99 27       	eor	r25, r25
     c42:	ee 0f       	add	r30, r30
     c44:	97 95       	ror	r25
     c46:	87 95       	ror	r24
     c48:	08 95       	ret

00000c4a <__cmpsf2>:
     c4a:	0e 94 0f 07 	call	0xe1e	; 0xe1e <__fp_cmp>
     c4e:	08 f4       	brcc	.+2      	; 0xc52 <__cmpsf2+0x8>
     c50:	81 e0       	ldi	r24, 0x01	; 1
     c52:	08 95       	ret

00000c54 <__divsf3>:
     c54:	0e 94 3e 06 	call	0xc7c	; 0xc7c <__divsf3x>
     c58:	0c 94 4a 07 	jmp	0xe94	; 0xe94 <__fp_round>
     c5c:	0e 94 43 07 	call	0xe86	; 0xe86 <__fp_pscB>
     c60:	58 f0       	brcs	.+22     	; 0xc78 <__divsf3+0x24>
     c62:	0e 94 3c 07 	call	0xe78	; 0xe78 <__fp_pscA>
     c66:	40 f0       	brcs	.+16     	; 0xc78 <__divsf3+0x24>
     c68:	29 f4       	brne	.+10     	; 0xc74 <__divsf3+0x20>
     c6a:	5f 3f       	cpi	r21, 0xFF	; 255
     c6c:	29 f0       	breq	.+10     	; 0xc78 <__divsf3+0x24>
     c6e:	0c 94 33 07 	jmp	0xe66	; 0xe66 <__fp_inf>
     c72:	51 11       	cpse	r21, r1
     c74:	0c 94 7e 07 	jmp	0xefc	; 0xefc <__fp_szero>
     c78:	0c 94 39 07 	jmp	0xe72	; 0xe72 <__fp_nan>

00000c7c <__divsf3x>:
     c7c:	0e 94 5b 07 	call	0xeb6	; 0xeb6 <__fp_split3>
     c80:	68 f3       	brcs	.-38     	; 0xc5c <__divsf3+0x8>

00000c82 <__divsf3_pse>:
     c82:	99 23       	and	r25, r25
     c84:	b1 f3       	breq	.-20     	; 0xc72 <__divsf3+0x1e>
     c86:	55 23       	and	r21, r21
     c88:	91 f3       	breq	.-28     	; 0xc6e <__divsf3+0x1a>
     c8a:	95 1b       	sub	r25, r21
     c8c:	55 0b       	sbc	r21, r21
     c8e:	bb 27       	eor	r27, r27
     c90:	aa 27       	eor	r26, r26
     c92:	62 17       	cp	r22, r18
     c94:	73 07       	cpc	r23, r19
     c96:	84 07       	cpc	r24, r20
     c98:	38 f0       	brcs	.+14     	; 0xca8 <__divsf3_pse+0x26>
     c9a:	9f 5f       	subi	r25, 0xFF	; 255
     c9c:	5f 4f       	sbci	r21, 0xFF	; 255
     c9e:	22 0f       	add	r18, r18
     ca0:	33 1f       	adc	r19, r19
     ca2:	44 1f       	adc	r20, r20
     ca4:	aa 1f       	adc	r26, r26
     ca6:	a9 f3       	breq	.-22     	; 0xc92 <__divsf3_pse+0x10>
     ca8:	35 d0       	rcall	.+106    	; 0xd14 <__divsf3_pse+0x92>
     caa:	0e 2e       	mov	r0, r30
     cac:	3a f0       	brmi	.+14     	; 0xcbc <__divsf3_pse+0x3a>
     cae:	e0 e8       	ldi	r30, 0x80	; 128
     cb0:	32 d0       	rcall	.+100    	; 0xd16 <__divsf3_pse+0x94>
     cb2:	91 50       	subi	r25, 0x01	; 1
     cb4:	50 40       	sbci	r21, 0x00	; 0
     cb6:	e6 95       	lsr	r30
     cb8:	00 1c       	adc	r0, r0
     cba:	ca f7       	brpl	.-14     	; 0xcae <__divsf3_pse+0x2c>
     cbc:	2b d0       	rcall	.+86     	; 0xd14 <__divsf3_pse+0x92>
     cbe:	fe 2f       	mov	r31, r30
     cc0:	29 d0       	rcall	.+82     	; 0xd14 <__divsf3_pse+0x92>
     cc2:	66 0f       	add	r22, r22
     cc4:	77 1f       	adc	r23, r23
     cc6:	88 1f       	adc	r24, r24
     cc8:	bb 1f       	adc	r27, r27
     cca:	26 17       	cp	r18, r22
     ccc:	37 07       	cpc	r19, r23
     cce:	48 07       	cpc	r20, r24
     cd0:	ab 07       	cpc	r26, r27
     cd2:	b0 e8       	ldi	r27, 0x80	; 128
     cd4:	09 f0       	breq	.+2      	; 0xcd8 <__divsf3_pse+0x56>
     cd6:	bb 0b       	sbc	r27, r27
     cd8:	80 2d       	mov	r24, r0
     cda:	bf 01       	movw	r22, r30
     cdc:	ff 27       	eor	r31, r31
     cde:	93 58       	subi	r25, 0x83	; 131
     ce0:	5f 4f       	sbci	r21, 0xFF	; 255
     ce2:	3a f0       	brmi	.+14     	; 0xcf2 <__divsf3_pse+0x70>
     ce4:	9e 3f       	cpi	r25, 0xFE	; 254
     ce6:	51 05       	cpc	r21, r1
     ce8:	78 f0       	brcs	.+30     	; 0xd08 <__divsf3_pse+0x86>
     cea:	0c 94 33 07 	jmp	0xe66	; 0xe66 <__fp_inf>
     cee:	0c 94 7e 07 	jmp	0xefc	; 0xefc <__fp_szero>
     cf2:	5f 3f       	cpi	r21, 0xFF	; 255
     cf4:	e4 f3       	brlt	.-8      	; 0xcee <__divsf3_pse+0x6c>
     cf6:	98 3e       	cpi	r25, 0xE8	; 232
     cf8:	d4 f3       	brlt	.-12     	; 0xcee <__divsf3_pse+0x6c>
     cfa:	86 95       	lsr	r24
     cfc:	77 95       	ror	r23
     cfe:	67 95       	ror	r22
     d00:	b7 95       	ror	r27
     d02:	f7 95       	ror	r31
     d04:	9f 5f       	subi	r25, 0xFF	; 255
     d06:	c9 f7       	brne	.-14     	; 0xcfa <__divsf3_pse+0x78>
     d08:	88 0f       	add	r24, r24
     d0a:	91 1d       	adc	r25, r1
     d0c:	96 95       	lsr	r25
     d0e:	87 95       	ror	r24
     d10:	97 f9       	bld	r25, 7
     d12:	08 95       	ret
     d14:	e1 e0       	ldi	r30, 0x01	; 1
     d16:	66 0f       	add	r22, r22
     d18:	77 1f       	adc	r23, r23
     d1a:	88 1f       	adc	r24, r24
     d1c:	bb 1f       	adc	r27, r27
     d1e:	62 17       	cp	r22, r18
     d20:	73 07       	cpc	r23, r19
     d22:	84 07       	cpc	r24, r20
     d24:	ba 07       	cpc	r27, r26
     d26:	20 f0       	brcs	.+8      	; 0xd30 <__divsf3_pse+0xae>
     d28:	62 1b       	sub	r22, r18
     d2a:	73 0b       	sbc	r23, r19
     d2c:	84 0b       	sbc	r24, r20
     d2e:	ba 0b       	sbc	r27, r26
     d30:	ee 1f       	adc	r30, r30
     d32:	88 f7       	brcc	.-30     	; 0xd16 <__divsf3_pse+0x94>
     d34:	e0 95       	com	r30
     d36:	08 95       	ret

00000d38 <__fixsfsi>:
     d38:	0e 94 a3 06 	call	0xd46	; 0xd46 <__fixunssfsi>
     d3c:	68 94       	set
     d3e:	b1 11       	cpse	r27, r1
     d40:	0c 94 7e 07 	jmp	0xefc	; 0xefc <__fp_szero>
     d44:	08 95       	ret

00000d46 <__fixunssfsi>:
     d46:	0e 94 63 07 	call	0xec6	; 0xec6 <__fp_splitA>
     d4a:	88 f0       	brcs	.+34     	; 0xd6e <__fixunssfsi+0x28>
     d4c:	9f 57       	subi	r25, 0x7F	; 127
     d4e:	98 f0       	brcs	.+38     	; 0xd76 <__fixunssfsi+0x30>
     d50:	b9 2f       	mov	r27, r25
     d52:	99 27       	eor	r25, r25
     d54:	b7 51       	subi	r27, 0x17	; 23
     d56:	b0 f0       	brcs	.+44     	; 0xd84 <__fixunssfsi+0x3e>
     d58:	e1 f0       	breq	.+56     	; 0xd92 <__fixunssfsi+0x4c>
     d5a:	66 0f       	add	r22, r22
     d5c:	77 1f       	adc	r23, r23
     d5e:	88 1f       	adc	r24, r24
     d60:	99 1f       	adc	r25, r25
     d62:	1a f0       	brmi	.+6      	; 0xd6a <__fixunssfsi+0x24>
     d64:	ba 95       	dec	r27
     d66:	c9 f7       	brne	.-14     	; 0xd5a <__fixunssfsi+0x14>
     d68:	14 c0       	rjmp	.+40     	; 0xd92 <__fixunssfsi+0x4c>
     d6a:	b1 30       	cpi	r27, 0x01	; 1
     d6c:	91 f0       	breq	.+36     	; 0xd92 <__fixunssfsi+0x4c>
     d6e:	0e 94 7d 07 	call	0xefa	; 0xefa <__fp_zero>
     d72:	b1 e0       	ldi	r27, 0x01	; 1
     d74:	08 95       	ret
     d76:	0c 94 7d 07 	jmp	0xefa	; 0xefa <__fp_zero>
     d7a:	67 2f       	mov	r22, r23
     d7c:	78 2f       	mov	r23, r24
     d7e:	88 27       	eor	r24, r24
     d80:	b8 5f       	subi	r27, 0xF8	; 248
     d82:	39 f0       	breq	.+14     	; 0xd92 <__fixunssfsi+0x4c>
     d84:	b9 3f       	cpi	r27, 0xF9	; 249
     d86:	cc f3       	brlt	.-14     	; 0xd7a <__fixunssfsi+0x34>
     d88:	86 95       	lsr	r24
     d8a:	77 95       	ror	r23
     d8c:	67 95       	ror	r22
     d8e:	b3 95       	inc	r27
     d90:	d9 f7       	brne	.-10     	; 0xd88 <__fixunssfsi+0x42>
     d92:	3e f4       	brtc	.+14     	; 0xda2 <__fixunssfsi+0x5c>
     d94:	90 95       	com	r25
     d96:	80 95       	com	r24
     d98:	70 95       	com	r23
     d9a:	61 95       	neg	r22
     d9c:	7f 4f       	sbci	r23, 0xFF	; 255
     d9e:	8f 4f       	sbci	r24, 0xFF	; 255
     da0:	9f 4f       	sbci	r25, 0xFF	; 255
     da2:	08 95       	ret

00000da4 <__floatunsisf>:
     da4:	e8 94       	clt
     da6:	09 c0       	rjmp	.+18     	; 0xdba <__floatsisf+0x12>

00000da8 <__floatsisf>:
     da8:	97 fb       	bst	r25, 7
     daa:	3e f4       	brtc	.+14     	; 0xdba <__floatsisf+0x12>
     dac:	90 95       	com	r25
     dae:	80 95       	com	r24
     db0:	70 95       	com	r23
     db2:	61 95       	neg	r22
     db4:	7f 4f       	sbci	r23, 0xFF	; 255
     db6:	8f 4f       	sbci	r24, 0xFF	; 255
     db8:	9f 4f       	sbci	r25, 0xFF	; 255
     dba:	99 23       	and	r25, r25
     dbc:	a9 f0       	breq	.+42     	; 0xde8 <__floatsisf+0x40>
     dbe:	f9 2f       	mov	r31, r25
     dc0:	96 e9       	ldi	r25, 0x96	; 150
     dc2:	bb 27       	eor	r27, r27
     dc4:	93 95       	inc	r25
     dc6:	f6 95       	lsr	r31
     dc8:	87 95       	ror	r24
     dca:	77 95       	ror	r23
     dcc:	67 95       	ror	r22
     dce:	b7 95       	ror	r27
     dd0:	f1 11       	cpse	r31, r1
     dd2:	f8 cf       	rjmp	.-16     	; 0xdc4 <__floatsisf+0x1c>
     dd4:	fa f4       	brpl	.+62     	; 0xe14 <__floatsisf+0x6c>
     dd6:	bb 0f       	add	r27, r27
     dd8:	11 f4       	brne	.+4      	; 0xdde <__floatsisf+0x36>
     dda:	60 ff       	sbrs	r22, 0
     ddc:	1b c0       	rjmp	.+54     	; 0xe14 <__floatsisf+0x6c>
     dde:	6f 5f       	subi	r22, 0xFF	; 255
     de0:	7f 4f       	sbci	r23, 0xFF	; 255
     de2:	8f 4f       	sbci	r24, 0xFF	; 255
     de4:	9f 4f       	sbci	r25, 0xFF	; 255
     de6:	16 c0       	rjmp	.+44     	; 0xe14 <__floatsisf+0x6c>
     de8:	88 23       	and	r24, r24
     dea:	11 f0       	breq	.+4      	; 0xdf0 <__floatsisf+0x48>
     dec:	96 e9       	ldi	r25, 0x96	; 150
     dee:	11 c0       	rjmp	.+34     	; 0xe12 <__floatsisf+0x6a>
     df0:	77 23       	and	r23, r23
     df2:	21 f0       	breq	.+8      	; 0xdfc <__floatsisf+0x54>
     df4:	9e e8       	ldi	r25, 0x8E	; 142
     df6:	87 2f       	mov	r24, r23
     df8:	76 2f       	mov	r23, r22
     dfa:	05 c0       	rjmp	.+10     	; 0xe06 <__floatsisf+0x5e>
     dfc:	66 23       	and	r22, r22
     dfe:	71 f0       	breq	.+28     	; 0xe1c <__floatsisf+0x74>
     e00:	96 e8       	ldi	r25, 0x86	; 134
     e02:	86 2f       	mov	r24, r22
     e04:	70 e0       	ldi	r23, 0x00	; 0
     e06:	60 e0       	ldi	r22, 0x00	; 0
     e08:	2a f0       	brmi	.+10     	; 0xe14 <__floatsisf+0x6c>
     e0a:	9a 95       	dec	r25
     e0c:	66 0f       	add	r22, r22
     e0e:	77 1f       	adc	r23, r23
     e10:	88 1f       	adc	r24, r24
     e12:	da f7       	brpl	.-10     	; 0xe0a <__floatsisf+0x62>
     e14:	88 0f       	add	r24, r24
     e16:	96 95       	lsr	r25
     e18:	87 95       	ror	r24
     e1a:	97 f9       	bld	r25, 7
     e1c:	08 95       	ret

00000e1e <__fp_cmp>:
     e1e:	99 0f       	add	r25, r25
     e20:	00 08       	sbc	r0, r0
     e22:	55 0f       	add	r21, r21
     e24:	aa 0b       	sbc	r26, r26
     e26:	e0 e8       	ldi	r30, 0x80	; 128
     e28:	fe ef       	ldi	r31, 0xFE	; 254
     e2a:	16 16       	cp	r1, r22
     e2c:	17 06       	cpc	r1, r23
     e2e:	e8 07       	cpc	r30, r24
     e30:	f9 07       	cpc	r31, r25
     e32:	c0 f0       	brcs	.+48     	; 0xe64 <__fp_cmp+0x46>
     e34:	12 16       	cp	r1, r18
     e36:	13 06       	cpc	r1, r19
     e38:	e4 07       	cpc	r30, r20
     e3a:	f5 07       	cpc	r31, r21
     e3c:	98 f0       	brcs	.+38     	; 0xe64 <__fp_cmp+0x46>
     e3e:	62 1b       	sub	r22, r18
     e40:	73 0b       	sbc	r23, r19
     e42:	84 0b       	sbc	r24, r20
     e44:	95 0b       	sbc	r25, r21
     e46:	39 f4       	brne	.+14     	; 0xe56 <__fp_cmp+0x38>
     e48:	0a 26       	eor	r0, r26
     e4a:	61 f0       	breq	.+24     	; 0xe64 <__fp_cmp+0x46>
     e4c:	23 2b       	or	r18, r19
     e4e:	24 2b       	or	r18, r20
     e50:	25 2b       	or	r18, r21
     e52:	21 f4       	brne	.+8      	; 0xe5c <__fp_cmp+0x3e>
     e54:	08 95       	ret
     e56:	0a 26       	eor	r0, r26
     e58:	09 f4       	brne	.+2      	; 0xe5c <__fp_cmp+0x3e>
     e5a:	a1 40       	sbci	r26, 0x01	; 1
     e5c:	a6 95       	lsr	r26
     e5e:	8f ef       	ldi	r24, 0xFF	; 255
     e60:	81 1d       	adc	r24, r1
     e62:	81 1d       	adc	r24, r1
     e64:	08 95       	ret

00000e66 <__fp_inf>:
     e66:	97 f9       	bld	r25, 7
     e68:	9f 67       	ori	r25, 0x7F	; 127
     e6a:	80 e8       	ldi	r24, 0x80	; 128
     e6c:	70 e0       	ldi	r23, 0x00	; 0
     e6e:	60 e0       	ldi	r22, 0x00	; 0
     e70:	08 95       	ret

00000e72 <__fp_nan>:
     e72:	9f ef       	ldi	r25, 0xFF	; 255
     e74:	80 ec       	ldi	r24, 0xC0	; 192
     e76:	08 95       	ret

00000e78 <__fp_pscA>:
     e78:	00 24       	eor	r0, r0
     e7a:	0a 94       	dec	r0
     e7c:	16 16       	cp	r1, r22
     e7e:	17 06       	cpc	r1, r23
     e80:	18 06       	cpc	r1, r24
     e82:	09 06       	cpc	r0, r25
     e84:	08 95       	ret

00000e86 <__fp_pscB>:
     e86:	00 24       	eor	r0, r0
     e88:	0a 94       	dec	r0
     e8a:	12 16       	cp	r1, r18
     e8c:	13 06       	cpc	r1, r19
     e8e:	14 06       	cpc	r1, r20
     e90:	05 06       	cpc	r0, r21
     e92:	08 95       	ret

00000e94 <__fp_round>:
     e94:	09 2e       	mov	r0, r25
     e96:	03 94       	inc	r0
     e98:	00 0c       	add	r0, r0
     e9a:	11 f4       	brne	.+4      	; 0xea0 <__fp_round+0xc>
     e9c:	88 23       	and	r24, r24
     e9e:	52 f0       	brmi	.+20     	; 0xeb4 <__fp_round+0x20>
     ea0:	bb 0f       	add	r27, r27
     ea2:	40 f4       	brcc	.+16     	; 0xeb4 <__fp_round+0x20>
     ea4:	bf 2b       	or	r27, r31
     ea6:	11 f4       	brne	.+4      	; 0xeac <__fp_round+0x18>
     ea8:	60 ff       	sbrs	r22, 0
     eaa:	04 c0       	rjmp	.+8      	; 0xeb4 <__fp_round+0x20>
     eac:	6f 5f       	subi	r22, 0xFF	; 255
     eae:	7f 4f       	sbci	r23, 0xFF	; 255
     eb0:	8f 4f       	sbci	r24, 0xFF	; 255
     eb2:	9f 4f       	sbci	r25, 0xFF	; 255
     eb4:	08 95       	ret

00000eb6 <__fp_split3>:
     eb6:	57 fd       	sbrc	r21, 7
     eb8:	90 58       	subi	r25, 0x80	; 128
     eba:	44 0f       	add	r20, r20
     ebc:	55 1f       	adc	r21, r21
     ebe:	59 f0       	breq	.+22     	; 0xed6 <__fp_splitA+0x10>
     ec0:	5f 3f       	cpi	r21, 0xFF	; 255
     ec2:	71 f0       	breq	.+28     	; 0xee0 <__fp_splitA+0x1a>
     ec4:	47 95       	ror	r20

00000ec6 <__fp_splitA>:
     ec6:	88 0f       	add	r24, r24
     ec8:	97 fb       	bst	r25, 7
     eca:	99 1f       	adc	r25, r25
     ecc:	61 f0       	breq	.+24     	; 0xee6 <__fp_splitA+0x20>
     ece:	9f 3f       	cpi	r25, 0xFF	; 255
     ed0:	79 f0       	breq	.+30     	; 0xef0 <__fp_splitA+0x2a>
     ed2:	87 95       	ror	r24
     ed4:	08 95       	ret
     ed6:	12 16       	cp	r1, r18
     ed8:	13 06       	cpc	r1, r19
     eda:	14 06       	cpc	r1, r20
     edc:	55 1f       	adc	r21, r21
     ede:	f2 cf       	rjmp	.-28     	; 0xec4 <__fp_split3+0xe>
     ee0:	46 95       	lsr	r20
     ee2:	f1 df       	rcall	.-30     	; 0xec6 <__fp_splitA>
     ee4:	08 c0       	rjmp	.+16     	; 0xef6 <__fp_splitA+0x30>
     ee6:	16 16       	cp	r1, r22
     ee8:	17 06       	cpc	r1, r23
     eea:	18 06       	cpc	r1, r24
     eec:	99 1f       	adc	r25, r25
     eee:	f1 cf       	rjmp	.-30     	; 0xed2 <__fp_splitA+0xc>
     ef0:	86 95       	lsr	r24
     ef2:	71 05       	cpc	r23, r1
     ef4:	61 05       	cpc	r22, r1
     ef6:	08 94       	sec
     ef8:	08 95       	ret

00000efa <__fp_zero>:
     efa:	e8 94       	clt

00000efc <__fp_szero>:
     efc:	bb 27       	eor	r27, r27
     efe:	66 27       	eor	r22, r22
     f00:	77 27       	eor	r23, r23
     f02:	cb 01       	movw	r24, r22
     f04:	97 f9       	bld	r25, 7
     f06:	08 95       	ret

00000f08 <__mulsf3>:
     f08:	0e 94 97 07 	call	0xf2e	; 0xf2e <__mulsf3x>
     f0c:	0c 94 4a 07 	jmp	0xe94	; 0xe94 <__fp_round>
     f10:	0e 94 3c 07 	call	0xe78	; 0xe78 <__fp_pscA>
     f14:	38 f0       	brcs	.+14     	; 0xf24 <__mulsf3+0x1c>
     f16:	0e 94 43 07 	call	0xe86	; 0xe86 <__fp_pscB>
     f1a:	20 f0       	brcs	.+8      	; 0xf24 <__mulsf3+0x1c>
     f1c:	95 23       	and	r25, r21
     f1e:	11 f0       	breq	.+4      	; 0xf24 <__mulsf3+0x1c>
     f20:	0c 94 33 07 	jmp	0xe66	; 0xe66 <__fp_inf>
     f24:	0c 94 39 07 	jmp	0xe72	; 0xe72 <__fp_nan>
     f28:	11 24       	eor	r1, r1
     f2a:	0c 94 7e 07 	jmp	0xefc	; 0xefc <__fp_szero>

00000f2e <__mulsf3x>:
     f2e:	0e 94 5b 07 	call	0xeb6	; 0xeb6 <__fp_split3>
     f32:	70 f3       	brcs	.-36     	; 0xf10 <__mulsf3+0x8>

00000f34 <__mulsf3_pse>:
     f34:	95 9f       	mul	r25, r21
     f36:	c1 f3       	breq	.-16     	; 0xf28 <__mulsf3+0x20>
     f38:	95 0f       	add	r25, r21
     f3a:	50 e0       	ldi	r21, 0x00	; 0
     f3c:	55 1f       	adc	r21, r21
     f3e:	62 9f       	mul	r22, r18
     f40:	f0 01       	movw	r30, r0
     f42:	72 9f       	mul	r23, r18
     f44:	bb 27       	eor	r27, r27
     f46:	f0 0d       	add	r31, r0
     f48:	b1 1d       	adc	r27, r1
     f4a:	63 9f       	mul	r22, r19
     f4c:	aa 27       	eor	r26, r26
     f4e:	f0 0d       	add	r31, r0
     f50:	b1 1d       	adc	r27, r1
     f52:	aa 1f       	adc	r26, r26
     f54:	64 9f       	mul	r22, r20
     f56:	66 27       	eor	r22, r22
     f58:	b0 0d       	add	r27, r0
     f5a:	a1 1d       	adc	r26, r1
     f5c:	66 1f       	adc	r22, r22
     f5e:	82 9f       	mul	r24, r18
     f60:	22 27       	eor	r18, r18
     f62:	b0 0d       	add	r27, r0
     f64:	a1 1d       	adc	r26, r1
     f66:	62 1f       	adc	r22, r18
     f68:	73 9f       	mul	r23, r19
     f6a:	b0 0d       	add	r27, r0
     f6c:	a1 1d       	adc	r26, r1
     f6e:	62 1f       	adc	r22, r18
     f70:	83 9f       	mul	r24, r19
     f72:	a0 0d       	add	r26, r0
     f74:	61 1d       	adc	r22, r1
     f76:	22 1f       	adc	r18, r18
     f78:	74 9f       	mul	r23, r20
     f7a:	33 27       	eor	r19, r19
     f7c:	a0 0d       	add	r26, r0
     f7e:	61 1d       	adc	r22, r1
     f80:	23 1f       	adc	r18, r19
     f82:	84 9f       	mul	r24, r20
     f84:	60 0d       	add	r22, r0
     f86:	21 1d       	adc	r18, r1
     f88:	82 2f       	mov	r24, r18
     f8a:	76 2f       	mov	r23, r22
     f8c:	6a 2f       	mov	r22, r26
     f8e:	11 24       	eor	r1, r1
     f90:	9f 57       	subi	r25, 0x7F	; 127
     f92:	50 40       	sbci	r21, 0x00	; 0
     f94:	9a f0       	brmi	.+38     	; 0xfbc <__mulsf3_pse+0x88>
     f96:	f1 f0       	breq	.+60     	; 0xfd4 <__mulsf3_pse+0xa0>
     f98:	88 23       	and	r24, r24
     f9a:	4a f0       	brmi	.+18     	; 0xfae <__mulsf3_pse+0x7a>
     f9c:	ee 0f       	add	r30, r30
     f9e:	ff 1f       	adc	r31, r31
     fa0:	bb 1f       	adc	r27, r27
     fa2:	66 1f       	adc	r22, r22
     fa4:	77 1f       	adc	r23, r23
     fa6:	88 1f       	adc	r24, r24
     fa8:	91 50       	subi	r25, 0x01	; 1
     faa:	50 40       	sbci	r21, 0x00	; 0
     fac:	a9 f7       	brne	.-22     	; 0xf98 <__mulsf3_pse+0x64>
     fae:	9e 3f       	cpi	r25, 0xFE	; 254
     fb0:	51 05       	cpc	r21, r1
     fb2:	80 f0       	brcs	.+32     	; 0xfd4 <__mulsf3_pse+0xa0>
     fb4:	0c 94 33 07 	jmp	0xe66	; 0xe66 <__fp_inf>
     fb8:	0c 94 7e 07 	jmp	0xefc	; 0xefc <__fp_szero>
     fbc:	5f 3f       	cpi	r21, 0xFF	; 255
     fbe:	e4 f3       	brlt	.-8      	; 0xfb8 <__mulsf3_pse+0x84>
     fc0:	98 3e       	cpi	r25, 0xE8	; 232
     fc2:	d4 f3       	brlt	.-12     	; 0xfb8 <__mulsf3_pse+0x84>
     fc4:	86 95       	lsr	r24
     fc6:	77 95       	ror	r23
     fc8:	67 95       	ror	r22
     fca:	b7 95       	ror	r27
     fcc:	f7 95       	ror	r31
     fce:	e7 95       	ror	r30
     fd0:	9f 5f       	subi	r25, 0xFF	; 255
     fd2:	c1 f7       	brne	.-16     	; 0xfc4 <__mulsf3_pse+0x90>
     fd4:	fe 2b       	or	r31, r30
     fd6:	88 0f       	add	r24, r24
     fd8:	91 1d       	adc	r25, r1
     fda:	96 95       	lsr	r25
     fdc:	87 95       	ror	r24
     fde:	97 f9       	bld	r25, 7
     fe0:	08 95       	ret

00000fe2 <dtostrf>:
     fe2:	ef 92       	push	r14
     fe4:	0f 93       	push	r16
     fe6:	1f 93       	push	r17
     fe8:	cf 93       	push	r28
     fea:	df 93       	push	r29
     fec:	e8 01       	movw	r28, r16
     fee:	47 fd       	sbrc	r20, 7
     ff0:	02 c0       	rjmp	.+4      	; 0xff6 <dtostrf+0x14>
     ff2:	34 e0       	ldi	r19, 0x04	; 4
     ff4:	01 c0       	rjmp	.+2      	; 0xff8 <dtostrf+0x16>
     ff6:	34 e1       	ldi	r19, 0x14	; 20
     ff8:	04 2e       	mov	r0, r20
     ffa:	00 0c       	add	r0, r0
     ffc:	55 0b       	sbc	r21, r21
     ffe:	57 ff       	sbrs	r21, 7
    1000:	03 c0       	rjmp	.+6      	; 0x1008 <dtostrf+0x26>
    1002:	51 95       	neg	r21
    1004:	41 95       	neg	r20
    1006:	51 09       	sbc	r21, r1
    1008:	e3 2e       	mov	r14, r19
    100a:	02 2f       	mov	r16, r18
    100c:	24 2f       	mov	r18, r20
    100e:	ae 01       	movw	r20, r28
    1010:	0e 94 11 08 	call	0x1022	; 0x1022 <dtoa_prf>
    1014:	ce 01       	movw	r24, r28
    1016:	df 91       	pop	r29
    1018:	cf 91       	pop	r28
    101a:	1f 91       	pop	r17
    101c:	0f 91       	pop	r16
    101e:	ef 90       	pop	r14
    1020:	08 95       	ret

00001022 <dtoa_prf>:
    1022:	a9 e0       	ldi	r26, 0x09	; 9
    1024:	b0 e0       	ldi	r27, 0x00	; 0
    1026:	e7 e1       	ldi	r30, 0x17	; 23
    1028:	f8 e0       	ldi	r31, 0x08	; 8
    102a:	0c 94 49 0a 	jmp	0x1492	; 0x1492 <__prologue_saves__+0xc>
    102e:	6a 01       	movw	r12, r20
    1030:	12 2f       	mov	r17, r18
    1032:	b0 2e       	mov	r11, r16
    1034:	2b e3       	ldi	r18, 0x3B	; 59
    1036:	20 17       	cp	r18, r16
    1038:	20 f0       	brcs	.+8      	; 0x1042 <dtoa_prf+0x20>
    103a:	ff 24       	eor	r15, r15
    103c:	f3 94       	inc	r15
    103e:	f0 0e       	add	r15, r16
    1040:	02 c0       	rjmp	.+4      	; 0x1046 <dtoa_prf+0x24>
    1042:	2c e3       	ldi	r18, 0x3C	; 60
    1044:	f2 2e       	mov	r15, r18
    1046:	0f 2d       	mov	r16, r15
    1048:	27 e0       	ldi	r18, 0x07	; 7
    104a:	ae 01       	movw	r20, r28
    104c:	4f 5f       	subi	r20, 0xFF	; 255
    104e:	5f 4f       	sbci	r21, 0xFF	; 255
    1050:	0e 94 6b 09 	call	0x12d6	; 0x12d6 <__ftoa_engine>
    1054:	bc 01       	movw	r22, r24
    1056:	49 81       	ldd	r20, Y+1	; 0x01
    1058:	84 2f       	mov	r24, r20
    105a:	89 70       	andi	r24, 0x09	; 9
    105c:	81 30       	cpi	r24, 0x01	; 1
    105e:	31 f0       	breq	.+12     	; 0x106c <dtoa_prf+0x4a>
    1060:	e1 fc       	sbrc	r14, 1
    1062:	06 c0       	rjmp	.+12     	; 0x1070 <dtoa_prf+0x4e>
    1064:	e0 fe       	sbrs	r14, 0
    1066:	06 c0       	rjmp	.+12     	; 0x1074 <dtoa_prf+0x52>
    1068:	90 e2       	ldi	r25, 0x20	; 32
    106a:	05 c0       	rjmp	.+10     	; 0x1076 <dtoa_prf+0x54>
    106c:	9d e2       	ldi	r25, 0x2D	; 45
    106e:	03 c0       	rjmp	.+6      	; 0x1076 <dtoa_prf+0x54>
    1070:	9b e2       	ldi	r25, 0x2B	; 43
    1072:	01 c0       	rjmp	.+2      	; 0x1076 <dtoa_prf+0x54>
    1074:	90 e0       	ldi	r25, 0x00	; 0
    1076:	5e 2d       	mov	r21, r14
    1078:	50 71       	andi	r21, 0x10	; 16
    107a:	43 ff       	sbrs	r20, 3
    107c:	3c c0       	rjmp	.+120    	; 0x10f6 <dtoa_prf+0xd4>
    107e:	91 11       	cpse	r25, r1
    1080:	02 c0       	rjmp	.+4      	; 0x1086 <dtoa_prf+0x64>
    1082:	83 e0       	ldi	r24, 0x03	; 3
    1084:	01 c0       	rjmp	.+2      	; 0x1088 <dtoa_prf+0x66>
    1086:	84 e0       	ldi	r24, 0x04	; 4
    1088:	81 17       	cp	r24, r17
    108a:	18 f4       	brcc	.+6      	; 0x1092 <dtoa_prf+0x70>
    108c:	21 2f       	mov	r18, r17
    108e:	28 1b       	sub	r18, r24
    1090:	01 c0       	rjmp	.+2      	; 0x1094 <dtoa_prf+0x72>
    1092:	20 e0       	ldi	r18, 0x00	; 0
    1094:	51 11       	cpse	r21, r1
    1096:	0b c0       	rjmp	.+22     	; 0x10ae <dtoa_prf+0x8c>
    1098:	f6 01       	movw	r30, r12
    109a:	82 2f       	mov	r24, r18
    109c:	30 e2       	ldi	r19, 0x20	; 32
    109e:	88 23       	and	r24, r24
    10a0:	19 f0       	breq	.+6      	; 0x10a8 <dtoa_prf+0x86>
    10a2:	31 93       	st	Z+, r19
    10a4:	81 50       	subi	r24, 0x01	; 1
    10a6:	fb cf       	rjmp	.-10     	; 0x109e <dtoa_prf+0x7c>
    10a8:	c2 0e       	add	r12, r18
    10aa:	d1 1c       	adc	r13, r1
    10ac:	20 e0       	ldi	r18, 0x00	; 0
    10ae:	99 23       	and	r25, r25
    10b0:	29 f0       	breq	.+10     	; 0x10bc <dtoa_prf+0x9a>
    10b2:	d6 01       	movw	r26, r12
    10b4:	9c 93       	st	X, r25
    10b6:	f6 01       	movw	r30, r12
    10b8:	31 96       	adiw	r30, 0x01	; 1
    10ba:	6f 01       	movw	r12, r30
    10bc:	c6 01       	movw	r24, r12
    10be:	03 96       	adiw	r24, 0x03	; 3
    10c0:	e2 fe       	sbrs	r14, 2
    10c2:	0a c0       	rjmp	.+20     	; 0x10d8 <dtoa_prf+0xb6>
    10c4:	3e e4       	ldi	r19, 0x4E	; 78
    10c6:	d6 01       	movw	r26, r12
    10c8:	3c 93       	st	X, r19
    10ca:	41 e4       	ldi	r20, 0x41	; 65
    10cc:	11 96       	adiw	r26, 0x01	; 1
    10ce:	4c 93       	st	X, r20
    10d0:	11 97       	sbiw	r26, 0x01	; 1
    10d2:	12 96       	adiw	r26, 0x02	; 2
    10d4:	3c 93       	st	X, r19
    10d6:	06 c0       	rjmp	.+12     	; 0x10e4 <dtoa_prf+0xc2>
    10d8:	3e e6       	ldi	r19, 0x6E	; 110
    10da:	f6 01       	movw	r30, r12
    10dc:	30 83       	st	Z, r19
    10de:	41 e6       	ldi	r20, 0x61	; 97
    10e0:	41 83       	std	Z+1, r20	; 0x01
    10e2:	32 83       	std	Z+2, r19	; 0x02
    10e4:	fc 01       	movw	r30, r24
    10e6:	32 2f       	mov	r19, r18
    10e8:	40 e2       	ldi	r20, 0x20	; 32
    10ea:	33 23       	and	r19, r19
    10ec:	09 f4       	brne	.+2      	; 0x10f0 <dtoa_prf+0xce>
    10ee:	42 c0       	rjmp	.+132    	; 0x1174 <dtoa_prf+0x152>
    10f0:	41 93       	st	Z+, r20
    10f2:	31 50       	subi	r19, 0x01	; 1
    10f4:	fa cf       	rjmp	.-12     	; 0x10ea <dtoa_prf+0xc8>
    10f6:	42 ff       	sbrs	r20, 2
    10f8:	44 c0       	rjmp	.+136    	; 0x1182 <dtoa_prf+0x160>
    10fa:	91 11       	cpse	r25, r1
    10fc:	02 c0       	rjmp	.+4      	; 0x1102 <dtoa_prf+0xe0>
    10fe:	83 e0       	ldi	r24, 0x03	; 3
    1100:	01 c0       	rjmp	.+2      	; 0x1104 <dtoa_prf+0xe2>
    1102:	84 e0       	ldi	r24, 0x04	; 4
    1104:	81 17       	cp	r24, r17
    1106:	18 f4       	brcc	.+6      	; 0x110e <dtoa_prf+0xec>
    1108:	21 2f       	mov	r18, r17
    110a:	28 1b       	sub	r18, r24
    110c:	01 c0       	rjmp	.+2      	; 0x1110 <dtoa_prf+0xee>
    110e:	20 e0       	ldi	r18, 0x00	; 0
    1110:	51 11       	cpse	r21, r1
    1112:	0b c0       	rjmp	.+22     	; 0x112a <dtoa_prf+0x108>
    1114:	f6 01       	movw	r30, r12
    1116:	82 2f       	mov	r24, r18
    1118:	30 e2       	ldi	r19, 0x20	; 32
    111a:	88 23       	and	r24, r24
    111c:	19 f0       	breq	.+6      	; 0x1124 <dtoa_prf+0x102>
    111e:	31 93       	st	Z+, r19
    1120:	81 50       	subi	r24, 0x01	; 1
    1122:	fb cf       	rjmp	.-10     	; 0x111a <dtoa_prf+0xf8>
    1124:	c2 0e       	add	r12, r18
    1126:	d1 1c       	adc	r13, r1
    1128:	20 e0       	ldi	r18, 0x00	; 0
    112a:	99 23       	and	r25, r25
    112c:	29 f0       	breq	.+10     	; 0x1138 <dtoa_prf+0x116>
    112e:	d6 01       	movw	r26, r12
    1130:	9c 93       	st	X, r25
    1132:	f6 01       	movw	r30, r12
    1134:	31 96       	adiw	r30, 0x01	; 1
    1136:	6f 01       	movw	r12, r30
    1138:	c6 01       	movw	r24, r12
    113a:	03 96       	adiw	r24, 0x03	; 3
    113c:	e2 fe       	sbrs	r14, 2
    113e:	0b c0       	rjmp	.+22     	; 0x1156 <dtoa_prf+0x134>
    1140:	39 e4       	ldi	r19, 0x49	; 73
    1142:	d6 01       	movw	r26, r12
    1144:	3c 93       	st	X, r19
    1146:	3e e4       	ldi	r19, 0x4E	; 78
    1148:	11 96       	adiw	r26, 0x01	; 1
    114a:	3c 93       	st	X, r19
    114c:	11 97       	sbiw	r26, 0x01	; 1
    114e:	36 e4       	ldi	r19, 0x46	; 70
    1150:	12 96       	adiw	r26, 0x02	; 2
    1152:	3c 93       	st	X, r19
    1154:	07 c0       	rjmp	.+14     	; 0x1164 <dtoa_prf+0x142>
    1156:	39 e6       	ldi	r19, 0x69	; 105
    1158:	f6 01       	movw	r30, r12
    115a:	30 83       	st	Z, r19
    115c:	3e e6       	ldi	r19, 0x6E	; 110
    115e:	31 83       	std	Z+1, r19	; 0x01
    1160:	36 e6       	ldi	r19, 0x66	; 102
    1162:	32 83       	std	Z+2, r19	; 0x02
    1164:	fc 01       	movw	r30, r24
    1166:	32 2f       	mov	r19, r18
    1168:	40 e2       	ldi	r20, 0x20	; 32
    116a:	33 23       	and	r19, r19
    116c:	19 f0       	breq	.+6      	; 0x1174 <dtoa_prf+0x152>
    116e:	41 93       	st	Z+, r20
    1170:	31 50       	subi	r19, 0x01	; 1
    1172:	fb cf       	rjmp	.-10     	; 0x116a <dtoa_prf+0x148>
    1174:	fc 01       	movw	r30, r24
    1176:	e2 0f       	add	r30, r18
    1178:	f1 1d       	adc	r31, r1
    117a:	10 82       	st	Z, r1
    117c:	8e ef       	ldi	r24, 0xFE	; 254
    117e:	9f ef       	ldi	r25, 0xFF	; 255
    1180:	a6 c0       	rjmp	.+332    	; 0x12ce <dtoa_prf+0x2ac>
    1182:	21 e0       	ldi	r18, 0x01	; 1
    1184:	30 e0       	ldi	r19, 0x00	; 0
    1186:	91 11       	cpse	r25, r1
    1188:	02 c0       	rjmp	.+4      	; 0x118e <dtoa_prf+0x16c>
    118a:	20 e0       	ldi	r18, 0x00	; 0
    118c:	30 e0       	ldi	r19, 0x00	; 0
    118e:	16 16       	cp	r1, r22
    1190:	17 06       	cpc	r1, r23
    1192:	1c f4       	brge	.+6      	; 0x119a <dtoa_prf+0x178>
    1194:	fb 01       	movw	r30, r22
    1196:	31 96       	adiw	r30, 0x01	; 1
    1198:	02 c0       	rjmp	.+4      	; 0x119e <dtoa_prf+0x17c>
    119a:	e1 e0       	ldi	r30, 0x01	; 1
    119c:	f0 e0       	ldi	r31, 0x00	; 0
    119e:	2e 0f       	add	r18, r30
    11a0:	3f 1f       	adc	r19, r31
    11a2:	bb 20       	and	r11, r11
    11a4:	21 f0       	breq	.+8      	; 0x11ae <dtoa_prf+0x18c>
    11a6:	eb 2d       	mov	r30, r11
    11a8:	f0 e0       	ldi	r31, 0x00	; 0
    11aa:	31 96       	adiw	r30, 0x01	; 1
    11ac:	02 c0       	rjmp	.+4      	; 0x11b2 <dtoa_prf+0x190>
    11ae:	e0 e0       	ldi	r30, 0x00	; 0
    11b0:	f0 e0       	ldi	r31, 0x00	; 0
    11b2:	2e 0f       	add	r18, r30
    11b4:	3f 1f       	adc	r19, r31
    11b6:	e1 2f       	mov	r30, r17
    11b8:	f0 e0       	ldi	r31, 0x00	; 0
    11ba:	2e 17       	cp	r18, r30
    11bc:	3f 07       	cpc	r19, r31
    11be:	1c f4       	brge	.+6      	; 0x11c6 <dtoa_prf+0x1a4>
    11c0:	12 1b       	sub	r17, r18
    11c2:	21 2f       	mov	r18, r17
    11c4:	01 c0       	rjmp	.+2      	; 0x11c8 <dtoa_prf+0x1a6>
    11c6:	20 e0       	ldi	r18, 0x00	; 0
    11c8:	8e 2d       	mov	r24, r14
    11ca:	88 71       	andi	r24, 0x18	; 24
    11cc:	59 f4       	brne	.+22     	; 0x11e4 <dtoa_prf+0x1c2>
    11ce:	f6 01       	movw	r30, r12
    11d0:	82 2f       	mov	r24, r18
    11d2:	30 e2       	ldi	r19, 0x20	; 32
    11d4:	88 23       	and	r24, r24
    11d6:	19 f0       	breq	.+6      	; 0x11de <dtoa_prf+0x1bc>
    11d8:	31 93       	st	Z+, r19
    11da:	81 50       	subi	r24, 0x01	; 1
    11dc:	fb cf       	rjmp	.-10     	; 0x11d4 <dtoa_prf+0x1b2>
    11de:	c2 0e       	add	r12, r18
    11e0:	d1 1c       	adc	r13, r1
    11e2:	20 e0       	ldi	r18, 0x00	; 0
    11e4:	99 23       	and	r25, r25
    11e6:	29 f0       	breq	.+10     	; 0x11f2 <dtoa_prf+0x1d0>
    11e8:	d6 01       	movw	r26, r12
    11ea:	9c 93       	st	X, r25
    11ec:	f6 01       	movw	r30, r12
    11ee:	31 96       	adiw	r30, 0x01	; 1
    11f0:	6f 01       	movw	r12, r30
    11f2:	51 11       	cpse	r21, r1
    11f4:	0b c0       	rjmp	.+22     	; 0x120c <dtoa_prf+0x1ea>
    11f6:	f6 01       	movw	r30, r12
    11f8:	82 2f       	mov	r24, r18
    11fa:	90 e3       	ldi	r25, 0x30	; 48
    11fc:	88 23       	and	r24, r24
    11fe:	19 f0       	breq	.+6      	; 0x1206 <dtoa_prf+0x1e4>
    1200:	91 93       	st	Z+, r25
    1202:	81 50       	subi	r24, 0x01	; 1
    1204:	fb cf       	rjmp	.-10     	; 0x11fc <dtoa_prf+0x1da>
    1206:	c2 0e       	add	r12, r18
    1208:	d1 1c       	adc	r13, r1
    120a:	20 e0       	ldi	r18, 0x00	; 0
    120c:	0f 2d       	mov	r16, r15
    120e:	06 0f       	add	r16, r22
    1210:	9a 81       	ldd	r25, Y+2	; 0x02
    1212:	34 2f       	mov	r19, r20
    1214:	30 71       	andi	r19, 0x10	; 16
    1216:	44 ff       	sbrs	r20, 4
    1218:	03 c0       	rjmp	.+6      	; 0x1220 <dtoa_prf+0x1fe>
    121a:	91 33       	cpi	r25, 0x31	; 49
    121c:	09 f4       	brne	.+2      	; 0x1220 <dtoa_prf+0x1fe>
    121e:	01 50       	subi	r16, 0x01	; 1
    1220:	10 16       	cp	r1, r16
    1222:	24 f4       	brge	.+8      	; 0x122c <dtoa_prf+0x20a>
    1224:	09 30       	cpi	r16, 0x09	; 9
    1226:	18 f0       	brcs	.+6      	; 0x122e <dtoa_prf+0x20c>
    1228:	08 e0       	ldi	r16, 0x08	; 8
    122a:	01 c0       	rjmp	.+2      	; 0x122e <dtoa_prf+0x20c>
    122c:	01 e0       	ldi	r16, 0x01	; 1
    122e:	ab 01       	movw	r20, r22
    1230:	77 ff       	sbrs	r23, 7
    1232:	02 c0       	rjmp	.+4      	; 0x1238 <dtoa_prf+0x216>
    1234:	40 e0       	ldi	r20, 0x00	; 0
    1236:	50 e0       	ldi	r21, 0x00	; 0
    1238:	fb 01       	movw	r30, r22
    123a:	e4 1b       	sub	r30, r20
    123c:	f5 0b       	sbc	r31, r21
    123e:	a1 e0       	ldi	r26, 0x01	; 1
    1240:	b0 e0       	ldi	r27, 0x00	; 0
    1242:	ac 0f       	add	r26, r28
    1244:	bd 1f       	adc	r27, r29
    1246:	ea 0f       	add	r30, r26
    1248:	fb 1f       	adc	r31, r27
    124a:	8e e2       	ldi	r24, 0x2E	; 46
    124c:	a8 2e       	mov	r10, r24
    124e:	4b 01       	movw	r8, r22
    1250:	80 1a       	sub	r8, r16
    1252:	91 08       	sbc	r9, r1
    1254:	0b 2d       	mov	r16, r11
    1256:	10 e0       	ldi	r17, 0x00	; 0
    1258:	11 95       	neg	r17
    125a:	01 95       	neg	r16
    125c:	11 09       	sbc	r17, r1
    125e:	4f 3f       	cpi	r20, 0xFF	; 255
    1260:	bf ef       	ldi	r27, 0xFF	; 255
    1262:	5b 07       	cpc	r21, r27
    1264:	21 f4       	brne	.+8      	; 0x126e <dtoa_prf+0x24c>
    1266:	d6 01       	movw	r26, r12
    1268:	ac 92       	st	X, r10
    126a:	11 96       	adiw	r26, 0x01	; 1
    126c:	6d 01       	movw	r12, r26
    126e:	64 17       	cp	r22, r20
    1270:	75 07       	cpc	r23, r21
    1272:	2c f0       	brlt	.+10     	; 0x127e <dtoa_prf+0x25c>
    1274:	84 16       	cp	r8, r20
    1276:	95 06       	cpc	r9, r21
    1278:	14 f4       	brge	.+4      	; 0x127e <dtoa_prf+0x25c>
    127a:	81 81       	ldd	r24, Z+1	; 0x01
    127c:	01 c0       	rjmp	.+2      	; 0x1280 <dtoa_prf+0x25e>
    127e:	80 e3       	ldi	r24, 0x30	; 48
    1280:	41 50       	subi	r20, 0x01	; 1
    1282:	51 09       	sbc	r21, r1
    1284:	31 96       	adiw	r30, 0x01	; 1
    1286:	d6 01       	movw	r26, r12
    1288:	11 96       	adiw	r26, 0x01	; 1
    128a:	7d 01       	movw	r14, r26
    128c:	40 17       	cp	r20, r16
    128e:	51 07       	cpc	r21, r17
    1290:	24 f0       	brlt	.+8      	; 0x129a <dtoa_prf+0x278>
    1292:	d6 01       	movw	r26, r12
    1294:	8c 93       	st	X, r24
    1296:	67 01       	movw	r12, r14
    1298:	e2 cf       	rjmp	.-60     	; 0x125e <dtoa_prf+0x23c>
    129a:	64 17       	cp	r22, r20
    129c:	75 07       	cpc	r23, r21
    129e:	39 f4       	brne	.+14     	; 0x12ae <dtoa_prf+0x28c>
    12a0:	96 33       	cpi	r25, 0x36	; 54
    12a2:	20 f4       	brcc	.+8      	; 0x12ac <dtoa_prf+0x28a>
    12a4:	95 33       	cpi	r25, 0x35	; 53
    12a6:	19 f4       	brne	.+6      	; 0x12ae <dtoa_prf+0x28c>
    12a8:	31 11       	cpse	r19, r1
    12aa:	01 c0       	rjmp	.+2      	; 0x12ae <dtoa_prf+0x28c>
    12ac:	81 e3       	ldi	r24, 0x31	; 49
    12ae:	f6 01       	movw	r30, r12
    12b0:	80 83       	st	Z, r24
    12b2:	f7 01       	movw	r30, r14
    12b4:	82 2f       	mov	r24, r18
    12b6:	90 e2       	ldi	r25, 0x20	; 32
    12b8:	88 23       	and	r24, r24
    12ba:	19 f0       	breq	.+6      	; 0x12c2 <dtoa_prf+0x2a0>
    12bc:	91 93       	st	Z+, r25
    12be:	81 50       	subi	r24, 0x01	; 1
    12c0:	fb cf       	rjmp	.-10     	; 0x12b8 <dtoa_prf+0x296>
    12c2:	f7 01       	movw	r30, r14
    12c4:	e2 0f       	add	r30, r18
    12c6:	f1 1d       	adc	r31, r1
    12c8:	10 82       	st	Z, r1
    12ca:	80 e0       	ldi	r24, 0x00	; 0
    12cc:	90 e0       	ldi	r25, 0x00	; 0
    12ce:	29 96       	adiw	r28, 0x09	; 9
    12d0:	ec e0       	ldi	r30, 0x0C	; 12
    12d2:	0c 94 65 0a 	jmp	0x14ca	; 0x14ca <__epilogue_restores__+0xc>

000012d6 <__ftoa_engine>:
    12d6:	28 30       	cpi	r18, 0x08	; 8
    12d8:	08 f0       	brcs	.+2      	; 0x12dc <__ftoa_engine+0x6>
    12da:	27 e0       	ldi	r18, 0x07	; 7
    12dc:	33 27       	eor	r19, r19
    12de:	da 01       	movw	r26, r20
    12e0:	99 0f       	add	r25, r25
    12e2:	31 1d       	adc	r19, r1
    12e4:	87 fd       	sbrc	r24, 7
    12e6:	91 60       	ori	r25, 0x01	; 1
    12e8:	00 96       	adiw	r24, 0x00	; 0
    12ea:	61 05       	cpc	r22, r1
    12ec:	71 05       	cpc	r23, r1
    12ee:	39 f4       	brne	.+14     	; 0x12fe <__ftoa_engine+0x28>
    12f0:	32 60       	ori	r19, 0x02	; 2
    12f2:	2e 5f       	subi	r18, 0xFE	; 254
    12f4:	3d 93       	st	X+, r19
    12f6:	30 e3       	ldi	r19, 0x30	; 48
    12f8:	2a 95       	dec	r18
    12fa:	e1 f7       	brne	.-8      	; 0x12f4 <__ftoa_engine+0x1e>
    12fc:	08 95       	ret
    12fe:	9f 3f       	cpi	r25, 0xFF	; 255
    1300:	30 f0       	brcs	.+12     	; 0x130e <__ftoa_engine+0x38>
    1302:	80 38       	cpi	r24, 0x80	; 128
    1304:	71 05       	cpc	r23, r1
    1306:	61 05       	cpc	r22, r1
    1308:	09 f0       	breq	.+2      	; 0x130c <__ftoa_engine+0x36>
    130a:	3c 5f       	subi	r19, 0xFC	; 252
    130c:	3c 5f       	subi	r19, 0xFC	; 252
    130e:	3d 93       	st	X+, r19
    1310:	91 30       	cpi	r25, 0x01	; 1
    1312:	08 f0       	brcs	.+2      	; 0x1316 <__ftoa_engine+0x40>
    1314:	80 68       	ori	r24, 0x80	; 128
    1316:	91 1d       	adc	r25, r1
    1318:	df 93       	push	r29
    131a:	cf 93       	push	r28
    131c:	1f 93       	push	r17
    131e:	0f 93       	push	r16
    1320:	ff 92       	push	r15
    1322:	ef 92       	push	r14
    1324:	19 2f       	mov	r17, r25
    1326:	98 7f       	andi	r25, 0xF8	; 248
    1328:	96 95       	lsr	r25
    132a:	e9 2f       	mov	r30, r25
    132c:	96 95       	lsr	r25
    132e:	96 95       	lsr	r25
    1330:	e9 0f       	add	r30, r25
    1332:	ff 27       	eor	r31, r31
    1334:	ee 53       	subi	r30, 0x3E	; 62
    1336:	ff 4f       	sbci	r31, 0xFF	; 255
    1338:	99 27       	eor	r25, r25
    133a:	33 27       	eor	r19, r19
    133c:	ee 24       	eor	r14, r14
    133e:	ff 24       	eor	r15, r15
    1340:	a7 01       	movw	r20, r14
    1342:	e7 01       	movw	r28, r14
    1344:	05 90       	lpm	r0, Z+
    1346:	08 94       	sec
    1348:	07 94       	ror	r0
    134a:	28 f4       	brcc	.+10     	; 0x1356 <__ftoa_engine+0x80>
    134c:	36 0f       	add	r19, r22
    134e:	e7 1e       	adc	r14, r23
    1350:	f8 1e       	adc	r15, r24
    1352:	49 1f       	adc	r20, r25
    1354:	51 1d       	adc	r21, r1
    1356:	66 0f       	add	r22, r22
    1358:	77 1f       	adc	r23, r23
    135a:	88 1f       	adc	r24, r24
    135c:	99 1f       	adc	r25, r25
    135e:	06 94       	lsr	r0
    1360:	a1 f7       	brne	.-24     	; 0x134a <__ftoa_engine+0x74>
    1362:	05 90       	lpm	r0, Z+
    1364:	07 94       	ror	r0
    1366:	28 f4       	brcc	.+10     	; 0x1372 <__ftoa_engine+0x9c>
    1368:	e7 0e       	add	r14, r23
    136a:	f8 1e       	adc	r15, r24
    136c:	49 1f       	adc	r20, r25
    136e:	56 1f       	adc	r21, r22
    1370:	c1 1d       	adc	r28, r1
    1372:	77 0f       	add	r23, r23
    1374:	88 1f       	adc	r24, r24
    1376:	99 1f       	adc	r25, r25
    1378:	66 1f       	adc	r22, r22
    137a:	06 94       	lsr	r0
    137c:	a1 f7       	brne	.-24     	; 0x1366 <__ftoa_engine+0x90>
    137e:	05 90       	lpm	r0, Z+
    1380:	07 94       	ror	r0
    1382:	28 f4       	brcc	.+10     	; 0x138e <__ftoa_engine+0xb8>
    1384:	f8 0e       	add	r15, r24
    1386:	49 1f       	adc	r20, r25
    1388:	56 1f       	adc	r21, r22
    138a:	c7 1f       	adc	r28, r23
    138c:	d1 1d       	adc	r29, r1
    138e:	88 0f       	add	r24, r24
    1390:	99 1f       	adc	r25, r25
    1392:	66 1f       	adc	r22, r22
    1394:	77 1f       	adc	r23, r23
    1396:	06 94       	lsr	r0
    1398:	a1 f7       	brne	.-24     	; 0x1382 <__ftoa_engine+0xac>
    139a:	05 90       	lpm	r0, Z+
    139c:	07 94       	ror	r0
    139e:	20 f4       	brcc	.+8      	; 0x13a8 <__ftoa_engine+0xd2>
    13a0:	49 0f       	add	r20, r25
    13a2:	56 1f       	adc	r21, r22
    13a4:	c7 1f       	adc	r28, r23
    13a6:	d8 1f       	adc	r29, r24
    13a8:	99 0f       	add	r25, r25
    13aa:	66 1f       	adc	r22, r22
    13ac:	77 1f       	adc	r23, r23
    13ae:	88 1f       	adc	r24, r24
    13b0:	06 94       	lsr	r0
    13b2:	a9 f7       	brne	.-22     	; 0x139e <__ftoa_engine+0xc8>
    13b4:	84 91       	lpm	r24, Z
    13b6:	10 95       	com	r17
    13b8:	17 70       	andi	r17, 0x07	; 7
    13ba:	41 f0       	breq	.+16     	; 0x13cc <__ftoa_engine+0xf6>
    13bc:	d6 95       	lsr	r29
    13be:	c7 95       	ror	r28
    13c0:	57 95       	ror	r21
    13c2:	47 95       	ror	r20
    13c4:	f7 94       	ror	r15
    13c6:	e7 94       	ror	r14
    13c8:	1a 95       	dec	r17
    13ca:	c1 f7       	brne	.-16     	; 0x13bc <__ftoa_engine+0xe6>
    13cc:	e8 e6       	ldi	r30, 0x68	; 104
    13ce:	f0 e0       	ldi	r31, 0x00	; 0
    13d0:	68 94       	set
    13d2:	15 90       	lpm	r1, Z+
    13d4:	15 91       	lpm	r17, Z+
    13d6:	35 91       	lpm	r19, Z+
    13d8:	65 91       	lpm	r22, Z+
    13da:	95 91       	lpm	r25, Z+
    13dc:	05 90       	lpm	r0, Z+
    13de:	7f e2       	ldi	r23, 0x2F	; 47
    13e0:	73 95       	inc	r23
    13e2:	e1 18       	sub	r14, r1
    13e4:	f1 0a       	sbc	r15, r17
    13e6:	43 0b       	sbc	r20, r19
    13e8:	56 0b       	sbc	r21, r22
    13ea:	c9 0b       	sbc	r28, r25
    13ec:	d0 09       	sbc	r29, r0
    13ee:	c0 f7       	brcc	.-16     	; 0x13e0 <__ftoa_engine+0x10a>
    13f0:	e1 0c       	add	r14, r1
    13f2:	f1 1e       	adc	r15, r17
    13f4:	43 1f       	adc	r20, r19
    13f6:	56 1f       	adc	r21, r22
    13f8:	c9 1f       	adc	r28, r25
    13fa:	d0 1d       	adc	r29, r0
    13fc:	7e f4       	brtc	.+30     	; 0x141c <__ftoa_engine+0x146>
    13fe:	70 33       	cpi	r23, 0x30	; 48
    1400:	11 f4       	brne	.+4      	; 0x1406 <__ftoa_engine+0x130>
    1402:	8a 95       	dec	r24
    1404:	e6 cf       	rjmp	.-52     	; 0x13d2 <__ftoa_engine+0xfc>
    1406:	e8 94       	clt
    1408:	01 50       	subi	r16, 0x01	; 1
    140a:	30 f0       	brcs	.+12     	; 0x1418 <__ftoa_engine+0x142>
    140c:	08 0f       	add	r16, r24
    140e:	0a f4       	brpl	.+2      	; 0x1412 <__ftoa_engine+0x13c>
    1410:	00 27       	eor	r16, r16
    1412:	02 17       	cp	r16, r18
    1414:	08 f4       	brcc	.+2      	; 0x1418 <__ftoa_engine+0x142>
    1416:	20 2f       	mov	r18, r16
    1418:	23 95       	inc	r18
    141a:	02 2f       	mov	r16, r18
    141c:	7a 33       	cpi	r23, 0x3A	; 58
    141e:	28 f0       	brcs	.+10     	; 0x142a <__ftoa_engine+0x154>
    1420:	79 e3       	ldi	r23, 0x39	; 57
    1422:	7d 93       	st	X+, r23
    1424:	2a 95       	dec	r18
    1426:	e9 f7       	brne	.-6      	; 0x1422 <__ftoa_engine+0x14c>
    1428:	10 c0       	rjmp	.+32     	; 0x144a <__ftoa_engine+0x174>
    142a:	7d 93       	st	X+, r23
    142c:	2a 95       	dec	r18
    142e:	89 f6       	brne	.-94     	; 0x13d2 <__ftoa_engine+0xfc>
    1430:	06 94       	lsr	r0
    1432:	97 95       	ror	r25
    1434:	67 95       	ror	r22
    1436:	37 95       	ror	r19
    1438:	17 95       	ror	r17
    143a:	17 94       	ror	r1
    143c:	e1 18       	sub	r14, r1
    143e:	f1 0a       	sbc	r15, r17
    1440:	43 0b       	sbc	r20, r19
    1442:	56 0b       	sbc	r21, r22
    1444:	c9 0b       	sbc	r28, r25
    1446:	d0 09       	sbc	r29, r0
    1448:	98 f0       	brcs	.+38     	; 0x1470 <__ftoa_engine+0x19a>
    144a:	23 95       	inc	r18
    144c:	7e 91       	ld	r23, -X
    144e:	73 95       	inc	r23
    1450:	7a 33       	cpi	r23, 0x3A	; 58
    1452:	08 f0       	brcs	.+2      	; 0x1456 <__ftoa_engine+0x180>
    1454:	70 e3       	ldi	r23, 0x30	; 48
    1456:	7c 93       	st	X, r23
    1458:	20 13       	cpse	r18, r16
    145a:	b8 f7       	brcc	.-18     	; 0x144a <__ftoa_engine+0x174>
    145c:	7e 91       	ld	r23, -X
    145e:	70 61       	ori	r23, 0x10	; 16
    1460:	7d 93       	st	X+, r23
    1462:	30 f0       	brcs	.+12     	; 0x1470 <__ftoa_engine+0x19a>
    1464:	83 95       	inc	r24
    1466:	71 e3       	ldi	r23, 0x31	; 49
    1468:	7d 93       	st	X+, r23
    146a:	70 e3       	ldi	r23, 0x30	; 48
    146c:	2a 95       	dec	r18
    146e:	e1 f7       	brne	.-8      	; 0x1468 <__ftoa_engine+0x192>
    1470:	11 24       	eor	r1, r1
    1472:	ef 90       	pop	r14
    1474:	ff 90       	pop	r15
    1476:	0f 91       	pop	r16
    1478:	1f 91       	pop	r17
    147a:	cf 91       	pop	r28
    147c:	df 91       	pop	r29
    147e:	99 27       	eor	r25, r25
    1480:	87 fd       	sbrc	r24, 7
    1482:	90 95       	com	r25
    1484:	08 95       	ret

00001486 <__prologue_saves__>:
    1486:	2f 92       	push	r2
    1488:	3f 92       	push	r3
    148a:	4f 92       	push	r4
    148c:	5f 92       	push	r5
    148e:	6f 92       	push	r6
    1490:	7f 92       	push	r7
    1492:	8f 92       	push	r8
    1494:	9f 92       	push	r9
    1496:	af 92       	push	r10
    1498:	bf 92       	push	r11
    149a:	cf 92       	push	r12
    149c:	df 92       	push	r13
    149e:	ef 92       	push	r14
    14a0:	ff 92       	push	r15
    14a2:	0f 93       	push	r16
    14a4:	1f 93       	push	r17
    14a6:	cf 93       	push	r28
    14a8:	df 93       	push	r29
    14aa:	cd b7       	in	r28, 0x3d	; 61
    14ac:	de b7       	in	r29, 0x3e	; 62
    14ae:	ca 1b       	sub	r28, r26
    14b0:	db 0b       	sbc	r29, r27
    14b2:	0f b6       	in	r0, 0x3f	; 63
    14b4:	f8 94       	cli
    14b6:	de bf       	out	0x3e, r29	; 62
    14b8:	0f be       	out	0x3f, r0	; 63
    14ba:	cd bf       	out	0x3d, r28	; 61
    14bc:	09 94       	ijmp

000014be <__epilogue_restores__>:
    14be:	2a 88       	ldd	r2, Y+18	; 0x12
    14c0:	39 88       	ldd	r3, Y+17	; 0x11
    14c2:	48 88       	ldd	r4, Y+16	; 0x10
    14c4:	5f 84       	ldd	r5, Y+15	; 0x0f
    14c6:	6e 84       	ldd	r6, Y+14	; 0x0e
    14c8:	7d 84       	ldd	r7, Y+13	; 0x0d
    14ca:	8c 84       	ldd	r8, Y+12	; 0x0c
    14cc:	9b 84       	ldd	r9, Y+11	; 0x0b
    14ce:	aa 84       	ldd	r10, Y+10	; 0x0a
    14d0:	b9 84       	ldd	r11, Y+9	; 0x09
    14d2:	c8 84       	ldd	r12, Y+8	; 0x08
    14d4:	df 80       	ldd	r13, Y+7	; 0x07
    14d6:	ee 80       	ldd	r14, Y+6	; 0x06
    14d8:	fd 80       	ldd	r15, Y+5	; 0x05
    14da:	0c 81       	ldd	r16, Y+4	; 0x04
    14dc:	1b 81       	ldd	r17, Y+3	; 0x03
    14de:	aa 81       	ldd	r26, Y+2	; 0x02
    14e0:	b9 81       	ldd	r27, Y+1	; 0x01
    14e2:	ce 0f       	add	r28, r30
    14e4:	d1 1d       	adc	r29, r1
    14e6:	0f b6       	in	r0, 0x3f	; 63
    14e8:	f8 94       	cli
    14ea:	de bf       	out	0x3e, r29	; 62
    14ec:	0f be       	out	0x3f, r0	; 63
    14ee:	cd bf       	out	0x3d, r28	; 61
    14f0:	ed 01       	movw	r28, r26
    14f2:	08 95       	ret

000014f4 <_exit>:
    14f4:	f8 94       	cli

000014f6 <__stop_program>:
    14f6:	ff cf       	rjmp	.-2      	; 0x14f6 <__stop_program>
